(lp0
((lp1
(lp2
(lp3
F0.017778289668618275
aF0.9533231184481528
aF0.41976422829814997
aF-0.8607994397726295
aF-0.18218545212449633
aa(lp4
F-0.020832360519291236
aF0.8248212256668508
aF-0.01520143224062287
aF-0.08806616618079072
aF0.9898064504665314
aa(lp5
F-0.2788335347251807
aF-0.6176053132737875
aF0.10476598318049368
aF-0.043363941782328594
aF0.8987053474110993
aa(lp6
F0.7139177318330789
aF0.032583872499533456
aF-0.11034816050616736
aF0.8945059170256191
aF0.16391383918186708
aa(lp7
F-0.8947118220023427
aF-0.7423609777586484
aF-0.05721381744177598
aF-0.03859548842287741
aF-0.8476772183512125
aa(lp8
F-0.24222522998176216
aF0.8190624689263206
aF-0.8332771729090709
aF0.031352566910217705
aF0.18873483076032516
aa(lp9
F0.7651030949286468
aF0.884377994541315
aF-0.5229332622028304
aF0.4356921380267271
aF0.4260300470034277
aa(lp10
F-0.6231155091271667
aF-0.1126392412527717
aF0.004378904691721974
aF-0.24634736298935067
aF-0.09136557876280449
aaa(lp11
(lp12
F0.578844569974907
aF-0.9310368236515731
aF-0.6416738726010356
aF0.383530684408661
aa(lp13
F0.9089312272284296
aF-0.045508124206933426
aF-0.1216854922082804
aF0.06484663542685198
aa(lp14
F0.8104525820899298
aF-0.7927235481140718
aF0.5987747250538167
aF-0.40638587706646123
aa(lp15
F0.5501878701556744
aF0.08000524245140195
aF-0.8627505171857919
aF0.8285991750252195
aa(lp16
F-0.05568797047323062
aF0.6721012010789854
aF0.6316960864329721
aF-0.41823177477729434
aaaF345.14999999999975
tp17
a(g1
F345.14999999999975
tp18
a(g1
F345.14999999999975
tp19
a(g1
F345.14999999999975
tp20
a(g1
F345.14999999999975
tp21
a(g1
F345.14999999999975
tp22
a(g1
F345.14999999999975
tp23
a(g1
F345.14999999999975
tp24
a(g1
F345.14999999999975
tp25
a(g1
F345.14999999999975
tp26
a(g1
F345.14999999999975
tp27
a(g1
F345.14999999999975
tp28
a(g1
F345.14999999999975
tp29
a(g1
F345.14999999999975
tp30
a(g1
F345.14999999999975
tp31
a(g1
F345.14999999999975
tp32
a(g1
F345.14999999999975
tp33
a(g1
F345.14999999999975
tp34
a(g1
F345.14999999999975
tp35
a(g1
F345.14999999999975
tp36
a(g1
F345.14999999999975
tp37
a(g1
F345.14999999999975
tp38
a(g1
F345.14999999999975
tp39
a(g1
F345.14999999999975
tp40
a(g1
F345.14999999999975
tp41
a(g1
F345.14999999999975
tp42
a(g1
F345.14999999999975
tp43
a(g1
F345.14999999999975
tp44
a(g1
F345.14999999999975
tp45
a(g1
F345.14999999999975
tp46
a(g1
F345.14999999999975
tp47
a(g1
F345.14999999999975
tp48
a(g1
F345.14999999999975
tp49
a(g1
F345.14999999999975
tp50
a(g1
F345.14999999999975
tp51
a(g1
F345.14999999999975
tp52
a(g1
F345.14999999999975
tp53
a(g1
F345.14999999999975
tp54
a(g1
F345.14999999999975
tp55
a(g1
F345.14999999999975
tp56
a(g1
F345.14999999999975
tp57
a(g1
F345.14999999999975
tp58
a(g1
F345.14999999999975
tp59
a(g1
F345.14999999999975
tp60
a(g1
F345.14999999999975
tp61
a(g1
F345.14999999999975
tp62
a(g1
F345.14999999999975
tp63
a(g1
F345.14999999999975
tp64
a(g1
F345.14999999999975
tp65
a(g1
F345.14999999999975
tp66
a(g1
F345.14999999999975
tp67
a(g1
F345.14999999999975
tp68
a(g1
F345.14999999999975
tp69
a(g1
F345.14999999999975
tp70
a(g1
F345.14999999999975
tp71
a(g1
F345.14999999999975
tp72
a(g1
F345.14999999999975
tp73
a(g1
F345.14999999999975
tp74
a(g1
F345.14999999999975
tp75
a(g1
F345.14999999999975
tp76
a(g1
F345.14999999999975
tp77
a(g1
F345.14999999999975
tp78
a(g1
F345.14999999999975
tp79
a(g1
F345.14999999999975
tp80
a(g1
F345.14999999999975
tp81
a(g1
F345.14999999999975
tp82
a(g1
F345.14999999999975
tp83
a(g1
F345.14999999999975
tp84
a(g1
F345.14999999999975
tp85
a(g1
F345.14999999999975
tp86
a(g1
F345.14999999999975
tp87
a(g1
F345.14999999999975
tp88
a(g1
F345.14999999999975
tp89
a(g1
F345.14999999999975
tp90
a(g1
F345.14999999999975
tp91
a(g1
F345.14999999999975
tp92
a(g1
F345.14999999999975
tp93
a(g1
F345.14999999999975
tp94
a(g1
F345.14999999999975
tp95
a(g1
F345.14999999999975
tp96
a(g1
F345.14999999999975
tp97
a(g1
F345.14999999999975
tp98
a(g1
F345.14999999999975
tp99
a(g1
F345.14999999999975
tp100
a(g1
F345.14999999999975
tp101
a(g1
F345.14999999999975
tp102
a(g1
F345.14999999999975
tp103
a(g1
F345.14999999999975
tp104
a(g1
F345.14999999999975
tp105
a(g1
F345.14999999999975
tp106
a(g1
F345.14999999999975
tp107
a(g1
F345.14999999999975
tp108
a(g1
F345.14999999999975
tp109
a(g1
F345.14999999999975
tp110
a(g1
F345.14999999999975
tp111
a(g1
F345.14999999999975
tp112
a(g1
F345.14999999999975
tp113
a(g1
F345.14999999999975
tp114
a(g1
F345.14999999999975
tp115
a(g1
F345.14999999999975
tp116
a.