(lp0
((lp1
(lp2
(lp3
F0.008428211023133594
aF-0.001668821632506333
aF0.4746812298495242
aF-0.929342910233601
aF-0.24685285664336876
aa(lp4
F-0.281364285200693
aF-0.1405467616734094
aF-0.003179189672476645
aF-0.040991475852538
aF0.9106647185513694
aa(lp5
F-0.2675850378031022
aF-0.33246904936288785
aF0.3280008455663596
aF0.013646831023984264
aF0.4391541526709142
aa(lp6
F0.7139177318330789
aF0.8397324860046375
aF-0.10058522766264952
aF0.9156590538952044
aF0.196012820673353
aa(lp7
F-0.8597204347915001
aF-0.18444679892650134
aF-0.6863980617801682
aF-0.03859548842287741
aF-0.8476772183512125
aa(lp8
F-0.19568169067655047
aF0.7874179306815358
aF-0.7632604787258707
aF0.031352566910217705
aF0.19263332654282653
aa(lp9
F0.7550960002716901
aF0.9358687532631965
aF0.112224429721129
aF0.4535898469539765
aF0.3981873499987813
aa(lp10
F0.29959997993768395
aF-0.04443460918681701
aF0.27809236300821955
aF-0.21248344017168036
aF0.6477393319910825
aaa(lp11
(lp12
F0.9230047639113808
aF-0.9310368236515731
aF-0.6328786584776744
aF0.21945320299759197
aa(lp13
F0.8324735040542348
aF-0.045508124206933426
aF-0.16977874469357845
aF-0.016306394256950588
aa(lp14
F0.7821013939240752
aF-0.7692557841504156
aF-0.5460585979247842
aF-0.37801910818426243
aa(lp15
F0.508914829474565
aF0.08249005982899177
aF-0.794801663453934
aF0.9218246220276474
aa(lp16
F-0.0155174627860531
aF0.698845757318076
aF0.6443757023243802
aF-0.4084463195638502
aaaF346.8499999999998
tp17
a(g1
F346.8499999999998
tp18
a(g1
F346.8499999999998
tp19
a(g1
F346.8499999999998
tp20
a(g1
F346.8499999999998
tp21
a(g1
F346.8499999999998
tp22
a(g1
F346.8499999999998
tp23
a(g1
F346.8499999999998
tp24
a(g1
F346.8499999999998
tp25
a(g1
F346.8499999999998
tp26
a.