(lp0
((lp1
(lp2
(lp3
F0.03164911039068684
aF-0.250161169220785
aF-0.00022812667722837965
aF-0.8607994397726295
aF-0.15599103774868964
aa(lp4
F-0.30105353389047235
aF-0.18347249032021673
aF-0.01520143224062287
aF-0.08093434374856413
aF0.9179461578636168
aa(lp5
F-0.19227764801473662
aF0.4693979203845775
aF0.29700847113110107
aF-0.037803073459429154
aF0.6039644189779034
aa(lp6
F0.677101497619162
aF0.6740156637726971
aF-0.1474030601062846
aF0.8945059170256191
aF0.16467260696457944
aa(lp7
F-0.8812654140606987
aF-0.1780434497522522
aF-0.6530023658072601
aF-0.05133345643287751
aF-0.8838376507139645
aa(lp8
F-0.21066822715043299
aF0.309439495687569
aF-0.7631583585396008
aF0.031352566910217705
aF0.14481013415406885
aa(lp9
F0.7416586191028505
aF0.6906787948606663
aF0.1677432048748015
aF0.7500273011293951
aF0.41172866456165796
aa(lp10
F0.43884196462449165
aF0.9350136653919245
aF0.3034320151962409
aF0.17954096786860396
aF0.6477393319910825
aaa(lp11
(lp12
F0.3421460843385593
aF-0.9276255160189671
aF-0.6310289287778895
aF0.24141487686529747
aa(lp13
F0.9089312272284296
aF0.034984858064395566
aF-0.11620949489726871
aF0.046513603555155957
aa(lp14
F0.7821013939240752
aF-0.7226161847161189
aF-0.5564311911841764
aF-0.3572778114755608
aa(lp15
F0.5742004535050119
aF0.08470957234991941
aF-0.8709415367355486
aF0.8564267574778442
aa(lp16
F-0.05568797047323062
aF0.657912755278329
aF0.625025670444327
aF-0.3682492989504782
aaaF345.8499999999998
tp17
a(g1
F345.8499999999998
tp18
a(g1
F345.8499999999998
tp19
a(g1
F345.8499999999998
tp20
a(g1
F345.8499999999998
tp21
a(g1
F345.8499999999998
tp22
a(g1
F345.8499999999998
tp23
a(g1
F345.8499999999998
tp24
a(g1
F345.8499999999998
tp25
a(g1
F345.8499999999998
tp26
a(g1
F345.8499999999998
tp27
a(g1
F345.8499999999998
tp28
a(g1
F345.8499999999998
tp29
a(g1
F345.8499999999998
tp30
a(g1
F345.8499999999998
tp31
a(g1
F345.8499999999998
tp32
a(g1
F345.8499999999998
tp33
a(g1
F345.8499999999998
tp34
a(g1
F345.8499999999998
tp35
a(g1
F345.8499999999998
tp36
a(g1
F345.8499999999998
tp37
a(g1
F345.8499999999998
tp38
a(g1
F345.8499999999998
tp39
a(g1
F345.8499999999998
tp40
a(g1
F345.8499999999998
tp41
a(g1
F345.8499999999998
tp42
a(g1
F345.8499999999998
tp43
a(g1
F345.8499999999998
tp44
a(g1
F345.8499999999998
tp45
a(g1
F345.8499999999998
tp46
a(g1
F345.8499999999998
tp47
a(g1
F345.8499999999998
tp48
a(g1
F345.8499999999998
tp49
a(g1
F345.8499999999998
tp50
a(g1
F345.8499999999998
tp51
a(g1
F345.8499999999998
tp52
a(g1
F345.8499999999998
tp53
a(g1
F345.8499999999998
tp54
a(g1
F345.8499999999998
tp55
a(g1
F345.8499999999998
tp56
a(g1
F345.8499999999998
tp57
a(g1
F345.8499999999998
tp58
a(g1
F345.8499999999998
tp59
a(g1
F345.8499999999998
tp60
a(g1
F345.8499999999998
tp61
a(g1
F345.8499999999998
tp62
a(g1
F345.8499999999998
tp63
a(g1
F345.8499999999998
tp64
a(g1
F345.8499999999998
tp65
a(g1
F345.8499999999998
tp66
a(g1
F345.8499999999998
tp67
a(g1
F345.8499999999998
tp68
a(g1
F345.8499999999998
tp69
a(g1
F345.8499999999998
tp70
a(g1
F345.8499999999998
tp71
a(g1
F345.8499999999998
tp72
a(g1
F345.8499999999998
tp73
a(g1
F345.8499999999998
tp74
a(g1
F345.8499999999998
tp75
a(g1
F345.8499999999998
tp76
a(g1
F345.8499999999998
tp77
a(g1
F345.8499999999998
tp78
a(g1
F345.8499999999998
tp79
a(g1
F345.8499999999998
tp80
a(g1
F345.8499999999998
tp81
a(g1
F345.8499999999998
tp82
a(g1
F345.8499999999998
tp83
a(g1
F345.8499999999998
tp84
a(g1
F345.8499999999998
tp85
a(g1
F345.8499999999998
tp86
a(g1
F345.8499999999998
tp87
a(g1
F345.8499999999998
tp88
a(g1
F345.8499999999998
tp89
a(g1
F345.8499999999998
tp90
a(g1
F345.8499999999998
tp91
a(g1
F345.8499999999998
tp92
a(g1
F345.8499999999998
tp93
a(g1
F345.8499999999998
tp94
a(g1
F345.8499999999998
tp95
a(g1
F345.8499999999998
tp96
a(g1
F345.8499999999998
tp97
a(g1
F345.8499999999998
tp98
a(g1
F345.8499999999998
tp99
a(g1
F345.8499999999998
tp100
a(g1
F345.8499999999998
tp101
a(g1
F345.8499999999998
tp102
a(g1
F345.8499999999998
tp103
a(g1
F345.8499999999998
tp104
a(g1
F345.8499999999998
tp105
a(g1
F345.8499999999998
tp106
a(g1
F345.8499999999998
tp107
a(g1
F345.8499999999998
tp108
a(g1
F345.8499999999998
tp109
a(g1
F345.8499999999998
tp110
a(g1
F345.8499999999998
tp111
a(g1
F345.8499999999998
tp112
a(g1
F345.8499999999998
tp113
a(g1
F345.8499999999998
tp114
a(g1
F345.8499999999998
tp115
a(g1
F345.8499999999998
tp116
a.