(lp0
((lp1
(lp2
(lp3
F0.06866547795327779
aF0.11144801140385793
aF0.6223089846713334
aF-0.97499448575394
aF-0.25708296654489105
aa(lp4
F-0.1982519263221387
aF-0.09226168251808448
aF0.1665767897010385
aF-0.040991475852538
aF0.8311864428779787
aa(lp5
F-0.16460950542524386
aF-0.37857775575901953
aF0.23937829363435018
aF-0.12660937610360018
aF0.4137266515712257
aa(lp6
F0.6276180244688228
aF0.8175033415513987
aF-0.15344727416926376
aF0.9184082103277633
aF0.23861451790443958
aa(lp7
F-0.728545314723576
aF-0.2959210653299112
aF-0.6696675880949834
aF-0.016388067410802884
aF-0.8476772183512125
aa(lp8
F-0.28020848703213763
aF0.7391661181191495
aF-0.8373650016675228
aF0.031352566910217705
aF0.2441355421940482
aa(lp9
F0.6243503757484972
aF0.9871327366448147
aF0.16642182863932056
aF0.4660118487580872
aF0.4073755532087496
aa(lp10
F0.3882858777093686
aF-0.04443460918681701
aF0.2978528529490344
aF-0.3420140039960344
aF0.6468347395888513
aaa(lp11
(lp12
F0.9230047639113808
aF-0.950666415990008
aF-0.7418938768618866
aF0.288140054598376
aa(lp13
F1.0114223012103583
aF-0.08696974684018817
aF-0.21937763547786138
aF0.07608478008025386
aa(lp14
F0.7533482341459188
aF-0.6244157798219151
aF-0.5460585979247842
aF-0.3061294141981798
aa(lp15
F0.3216492271534129
aF0.23675860497468962
aF-0.83794642409949
aF0.9521720364929847
aa(lp16
F0.04148497003081503
aF0.6765410463854783
aF0.466164170595486
aF-0.4084463195638502
aaaF77.84999999999982
tp17
a((lp18
(lp19
(lp20
F-0.0767400628516215
aF0.05667399027000134
aF0.4746812298495242
aF-0.9250857352721801
aF-0.25708296654489105
aa(lp21
F-0.25665315166897207
aF-0.11043151796478215
aF0.09237426408164807
aF-0.0005639830202823076
aF0.9245391405069612
aa(lp22
F-0.2675850378031022
aF-0.2851106708557983
aF0.23937829363435018
aF-0.12660937610360018
aF0.4353771838448833
aa(lp23
F0.6282096277127088
aF0.8752525876290388
aF-0.26201234341707647
aF0.9184082103277633
aF0.23244699161469445
aa(lp24
F-0.766567534249437
aF-0.3564141187491984
aF-0.6863980617801682
aF-0.016388067410802884
aF-0.8476772183512125
aa(lp25
F-0.22608960159987226
aF0.7891665331548167
aF-0.749188171949457
aF0.031352566910217705
aF0.2441355421940482
aa(lp26
F0.6634704795312064
aF0.920397334707937
aF0.1129644585060216
aF0.4535898469539765
aF0.3398231345087223
aa(lp27
F0.43465954496368314
aF-0.04443460918681701
aF0.2978528529490344
aF-0.14052135714774733
aF0.7018099481133607
aaa(lp28
(lp29
F0.939764995673687
aF-0.950666415990008
aF-0.7162884372154863
aF0.2570234172127023
aa(lp30
F0.9972976130520318
aF-0.0664448999820555
aF-0.30329481803276104
aF0.0923192130790861
aa(lp31
F0.7821013939240752
aF-0.7952058396420335
aF-0.4492115394466522
aF-0.32777402598576894
aa(lp32
F0.30317125252399113
aF0.23675860497468962
aF-0.8314475030880114
aF1.1063966184896954
aa(lp33
F0.06860732393341626
aF0.5902355618792213
aF0.5759410263402275
aF-0.4084463195638502
aaaF77.74999999999982
tp34
a((lp35
(lp36
(lp37
F0.06866547795327779
aF0.05667399027000134
aF0.5569537856578826
aF-0.9250857352721801
aF-0.25708296654489105
aa(lp38
F-0.25665315166897207
aF-0.11043151796478215
aF0.1665767897010385
aF-0.040991475852538
aF0.8311864428779787
aa(lp39
F-0.17386258296973392
aF-0.37857775575901953
aF0.23937829363435018
aF-0.12660937610360018
aF0.4137266515712257
aa(lp40
F0.6276180244688228
aF0.8175033415513987
aF-0.15344727416926376
aF0.9184082103277633
aF0.23861451790443958
aa(lp41
F-0.728545314723576
aF-0.2959210653299112
aF-0.6696675880949834
aF-0.016388067410802884
aF-0.8476772183512125
aa(lp42
F-0.28020848703213763
aF0.7391661181191495
aF-0.8373650016675228
aF0.031352566910217705
aF0.2441355421940482
aa(lp43
F0.6243503757484972
aF0.9001531621461905
aF0.16642182863932056
aF0.4660118487580872
aF0.4073755532087496
aa(lp44
F0.3882858777093686
aF-0.04443460918681701
aF0.2978528529490344
aF-0.3420140039960344
aF0.6977407074378518
aaa(lp45
(lp46
F0.9230047639113808
aF-0.950666415990008
aF-0.6432328786251311
aF0.288140054598376
aa(lp47
F1.0114223012103583
aF-0.09089066775658479
aF-0.21937763547786138
aF0.0923192130790861
aa(lp48
F0.7533482341459188
aF-0.6244157798219151
aF-0.5460585979247842
aF-0.3770351216482559
aa(lp49
F0.3216492271534129
aF0.23675860497468962
aF-0.83794642409949
aF0.9521720364929847
aa(lp50
F0.04148497003081503
aF0.6765410463854783
aF0.4745075300792204
aF-0.4084463195638502
aaaF77.74999999999982
tp51
a((lp52
(lp53
(lp54
F0.06866547795327779
aF0.11144801140385793
aF0.6223089846713334
aF-0.97499448575394
aF-0.25708296654489105
aa(lp55
F-0.25665315166897207
aF-0.09226168251808448
aF0.1665767897010385
aF-0.040991475852538
aF0.8311864428779787
aa(lp56
F-0.17386258296973392
aF-0.37857775575901953
aF0.23937829363435018
aF-0.12660937610360018
aF0.4137266515712257
aa(lp57
F0.6276180244688228
aF0.8175033415513987
aF-0.15344727416926376
aF0.9184082103277633
aF0.23861451790443958
aa(lp58
F-0.728545314723576
aF-0.2959210653299112
aF-0.6696675880949834
aF-0.016388067410802884
aF-0.8476772183512125
aa(lp59
F-0.28020848703213763
aF0.7391661181191495
aF-0.8373650016675228
aF0.031352566910217705
aF0.2441355421940482
aa(lp60
F0.6243503757484972
aF0.9871327366448147
aF0.16642182863932056
aF0.4660118487580872
aF0.4073755532087496
aa(lp61
F0.3882858777093686
aF-0.04443460918681701
aF0.2978528529490344
aF-0.3420140039960344
aF0.6977407074378518
aaa(lp62
(lp63
F0.9230047639113808
aF-0.950666415990008
aF-0.6432328786251311
aF0.288140054598376
aa(lp64
F1.0114223012103583
aF-0.08696974684018817
aF-0.21937763547786138
aF0.0923192130790861
aa(lp65
F0.7533482341459188
aF-0.6244157798219151
aF-0.5460585979247842
aF-0.3061294141981798
aa(lp66
F0.3216492271534129
aF0.23675860497468962
aF-0.83794642409949
aF0.9521720364929847
aa(lp67
F0.04148497003081503
aF0.6765410463854783
aF0.466164170595486
aF-0.4084463195638502
aaaF77.74999999999982
tp68
a((lp69
(lp70
(lp71
F0.06866547795327779
aF0.05667399027000134
aF0.5569537856578826
aF-0.8743583262742556
aF-0.25708296654489105
aa(lp72
F-0.3231428013163711
aF-0.11043151796478215
aF0.2637311297796592
aF-0.040991475852538
aF0.9106647185513694
aa(lp73
F-0.2675850378031022
aF-0.37651910317718257
aF0.1781734519798836
aF-0.029673151297906042
aF0.3737944711172656
aa(lp74
F0.6276180244688228
aF0.8382098995778509
aF-0.2485819743490894
aF0.9184082103277633
aF0.23861451790443958
aa(lp75
F-0.766567534249437
aF-0.3445704163232909
aF-0.6863980617801682
aF-0.016388067410802884
aF-0.8476772183512125
aa(lp76
F-0.32907205165613557
aF0.7391661181191495
aF-0.7632604787258707
aF-0.03360058573966118
aF0.2441355421940482
aa(lp77
F0.6634704795312064
aF0.9001531621461905
aF0.10790133636958318
aF0.3712235349953868
aF0.3798918603838635
aa(lp78
F0.23808948499964905
aF-0.04443460918681701
aF0.29663434011838247
aF-0.26685479464664247
aF0.6348729513339212
aaa(lp79
(lp80
F0.9230047639113808
aF-0.950666415990008
aF-0.6432328786251311
aF0.288140054598376
aa(lp81
F1.0429761360640835
aF-0.05800993176229372
aF-0.21937763547786138
aF0.07285831746098767
aa(lp82
F0.7821013939240752
aF-0.7692557841504156
aF-0.5460585979247842
aF-0.3770351216482559
aa(lp83
F0.3685335624223302
aF0.33540807839747644
aF-0.7385225158323566
aF0.9521720364929847
aa(lp84
F0.04148497003081503
aF0.6765410463854783
aF0.48562198686372265
aF-0.4084463195638502
aaaF77.74999999999982
tp85
a((lp86
(lp87
(lp88
F0.06866547795327779
aF0.05667399027000134
aF0.5569537856578826
aF-0.9250857352721801
aF-0.25708296654489105
aa(lp89
F-0.25665315166897207
aF-0.13709085955187797
aF0.1665767897010385
aF-0.040991475852538
aF0.8311864428779787
aa(lp90
F-0.17386258296973392
aF-0.37857775575901953
aF0.23937829363435018
aF-0.12660937610360018
aF0.36980243691386994
aa(lp91
F0.6276180244688228
aF0.8175033415513987
aF-0.15344727416926376
aF0.9184082103277633
aF0.23861451790443958
aa(lp92
F-0.728545314723576
aF-0.2959210653299112
aF-0.6696675880949834
aF-0.016388067410802884
aF-0.8476772183512125
aa(lp93
F-0.28020848703213763
aF0.7391661181191495
aF-0.8373650016675228
aF0.031352566910217705
aF0.2441355421940482
aa(lp94
F0.6243503757484972
aF0.9001531621461905
aF0.16642182863932056
aF0.4660118487580872
aF0.4073755532087496
aa(lp95
F0.3882858777093686
aF-0.04443460918681701
aF0.2978528529490344
aF-0.3420140039960344
aF0.7212167912462142
aaa(lp96
(lp97
F0.9230047639113808
aF-0.950666415990008
aF-0.6432328786251311
aF0.288140054598376
aa(lp98
F1.0114223012103583
aF-0.09089066775658479
aF-0.21937763547786138
aF0.0923192130790861
aa(lp99
F0.7533482341459188
aF-0.6244157798219151
aF-0.5460585979247842
aF-0.4241858773003448
aa(lp100
F0.3216492271534129
aF0.23675860497468962
aF-0.83794642409949
aF0.9521720364929847
aa(lp101
F0.04148497003081503
aF0.6765410463854783
aF0.4344294119598112
aF-0.4084463195638502
aaaF77.74999999999982
tp102
a((lp103
(lp104
(lp105
F-0.0792498797370909
aF0.05667399027000134
aF0.5242357859550547
aF-0.9250857352721801
aF-0.2609596676032791
aa(lp106
F-0.25665315166897207
aF-0.15486722870460534
aF0.09237426408164807
aF-0.040991475852538
aF0.9245391405069612
aa(lp107
F-0.2675850378031022
aF-0.37857775575901953
aF0.23937829363435018
aF-0.12660937610360018
aF0.3737944711172656
aa(lp108
F0.6282096277127088
aF0.8397324860046375
aF-0.1987722036504201
aF0.9184082103277633
aF0.23244699161469445
aa(lp109
F-0.766567534249437
aF-0.3564141187491984
aF-0.6863980617801682
aF-0.016388067410802884
aF-0.8476772183512125
aa(lp110
F-0.23796986645620008
aF0.7391661181191495
aF-0.8220346456482747
aF0.031352566910217705
aF0.2441355421940482
aa(lp111
F0.6634704795312064
aF0.920397334707937
aF0.1129644585060216
aF0.4535898469539765
aF0.37769307919492107
aa(lp112
F0.3674866934043756
aF-0.04443460918681701
aF0.2978528529490344
aF-0.21248344017168036
aF0.6240369725115587
aaa(lp113
(lp114
F0.939764995673687
aF-0.950666415990008
aF-0.7162884372154863
aF0.2570234172127023
aa(lp115
F1.0105088329653258
aF-0.0664448999820555
aF-0.30329481803276104
aF0.0923192130790861
aa(lp116
F0.8313340634360785
aF-0.7692557841504156
aF-0.5460585979247842
aF-0.32777402598576894
aa(lp117
F0.30317125252399113
aF0.23675860497468962
aF-0.8314475030880114
aF1.041386174641385
aa(lp118
F0.06860732393341626
aF0.5902355618792213
aF0.5759410263402275
aF-0.4084463195638502
aaaF77.69999999999982
tp119
a((lp120
(lp121
(lp122
F0.06866547795327779
aF0.05667399027000134
aF0.5569537856578826
aF-0.9250857352721801
aF-0.25708296654489105
aa(lp123
F-0.25665315166897207
aF-0.11043151796478215
aF0.1665767897010385
aF-0.040991475852538
aF0.8311864428779787
aa(lp124
F-0.17386258296973392
aF-0.37857775575901953
aF0.23937829363435018
aF-0.12660937610360018
aF0.4137266515712257
aa(lp125
F0.6276180244688228
aF0.8175033415513987
aF-0.15344727416926376
aF0.9184082103277633
aF0.23861451790443958
aa(lp126
F-0.728545314723576
aF-0.2577896691746666
aF-0.6696675880949834
aF-0.016388067410802884
aF-0.8476772183512125
aa(lp127
F-0.28020848703213763
aF0.7391661181191495
aF-0.8373650016675228
aF0.031352566910217705
aF0.2441355421940482
aa(lp128
F0.6243503757484972
aF0.9001531621461905
aF0.16642182863932056
aF0.4660118487580872
aF0.4073755532087496
aa(lp129
F0.3882858777093686
aF-0.04443460918681701
aF0.2978528529490344
aF-0.26685479464664247
aF0.6977407074378518
aaa(lp130
(lp131
F0.9230047639113808
aF-0.950666415990008
aF-0.6432328786251311
aF0.288140054598376
aa(lp132
F1.0114223012103583
aF-0.09089066775658479
aF-0.21937763547786138
aF0.0923192130790861
aa(lp133
F0.7612247196472566
aF-0.6244157798219151
aF-0.5460585979247842
aF-0.3770351216482559
aa(lp134
F0.3216492271534129
aF0.23675860497468962
aF-0.83794642409949
aF0.9521720364929847
aa(lp135
F0.04148497003081503
aF0.6765410463854783
aF0.4745075300792204
aF-0.4084463195638502
aaaF77.69999999999982
tp136
a((lp137
(lp138
(lp139
F-0.0767400628516215
aF-0.010730093169177023
aF0.4746812298495242
aF-0.9250857352721801
aF-0.25708296654489105
aa(lp140
F-0.29021907994650975
aF-0.11043151796478215
aF0.08911597126927263
aF-0.040991475852538
aF0.9882508181404851
aa(lp141
F-0.2704556758573299
aF-0.28017923474759676
aF0.16759022004356874
aF-0.12660937610360018
aF0.4353771838448833
aa(lp142
F0.6282096277127088
aF0.8206472642034297
aF-0.26201234341707647
aF0.9184082103277633
aF0.19031739048039487
aa(lp143
F-0.7578030500268935
aF-0.3564141187491984
aF-0.6863980617801682
aF-0.052305986731603145
aF-0.8476772183512125
aa(lp144
F-0.22608960159987226
aF0.7391661181191495
aF-0.7477683349621919
aF0.031352566910217705
aF0.2441355421940482
aa(lp145
F0.6634704795312064
aF0.920397334707937
aF0.1129644585060216
aF0.4535898469539765
aF0.2681984187400063
aa(lp146
F0.43465954496368314
aF-0.04443460918681701
aF0.2978528529490344
aF-0.14052135714774733
aF0.7018099481133607
aaa(lp147
(lp148
F0.9674898455617494
aF-0.950666415990008
aF-0.7162884372154863
aF0.22216410656034202
aa(lp149
F0.9972976130520318
aF-0.0664448999820555
aF-0.30329481803276104
aF0.0923192130790861
aa(lp150
F0.7821013939240752
aF-0.7692557841504156
aF-0.4492115394466522
aF-0.32777402598576894
aa(lp151
F0.30317125252399113
aF0.27272816274865613
aF-0.8314475030880114
aF1.041386174641385
aa(lp152
F0.06860732393341626
aF0.5902355618792213
aF0.5759410263402275
aF-0.4084463195638502
aaaF77.69999999999982
tp153
a((lp154
(lp155
(lp156
F0.06866547795327779
aF0.05667399027000134
aF0.5569537856578826
aF-0.8743583262742556
aF-0.25708296654489105
aa(lp157
F-0.25665315166897207
aF-0.11043151796478215
aF0.1665767897010385
aF-0.040991475852538
aF0.9106647185513694
aa(lp158
F-0.2675850378031022
aF-0.37651910317718257
aF0.1781734519798836
aF-0.029673151297906042
aF0.3737944711172656
aa(lp159
F0.6276180244688228
aF0.8382098995778509
aF-0.15344727416926376
aF0.9184082103277633
aF0.23861451790443958
aa(lp160
F-0.766567534249437
aF-0.3445704163232909
aF-0.6863980617801682
aF-0.016388067410802884
aF-0.8476772183512125
aa(lp161
F-0.24470092301013802
aF0.7391661181191495
aF-0.7632604787258707
aF-0.03360058573966118
aF0.2441355421940482
aa(lp162
F0.6634704795312064
aF0.9001531621461905
aF0.10790133636958318
aF0.3712235349953868
aF0.37769307919492107
aa(lp163
F0.23808948499964905
aF-0.04443460918681701
aF0.3457008204516657
aF-0.26685479464664247
aF0.6998457985697205
aaa(lp164
(lp165
F0.9230047639113808
aF-0.950666415990008
aF-0.6432328786251311
aF0.288140054598376
aa(lp166
F1.0122241301934896
aF-0.05800993176229372
aF-0.21937763547786138
aF0.0923192130790861
aa(lp167
F0.7821013939240752
aF-0.7692557841504156
aF-0.5460585979247842
aF-0.3770351216482559
aa(lp168
F0.3685335624223302
aF0.33540807839747644
aF-0.7385225158323566
aF0.9521720364929847
aa(lp169
F0.04148497003081503
aF0.6765410463854783
aF0.48562198686372265
aF-0.4084463195638502
aaaF77.69999999999982
tp170
a((lp171
(lp172
(lp173
F0.06866547795327779
aF0.14891285314932287
aF0.5569537856578826
aF-0.9250857352721801
aF-0.25708296654489105
aa(lp174
F-0.25665315166897207
aF-0.11043151796478215
aF0.14421545750750545
aF-0.040991475852538
aF0.7470818810567716
aa(lp175
F-0.2675850378031022
aF-0.37857775575901953
aF0.15850586276532933
aF-0.18924928599060292
aF0.3737944711172656
aa(lp176
F0.6276180244688228
aF0.8382098995778509
aF-0.15344727416926376
aF0.9923874545174881
aF0.23861451790443958
aa(lp177
F-0.8234431273980891
aF-0.316296615034252
aF-0.7673649874835818
aF-0.016388067410802884
aF-0.8476772183512125
aa(lp178
F-0.24470092301013802
aF0.7391661181191495
aF-0.7632604787258707
aF0.031352566910217705
aF0.2441355421940482
aa(lp179
F0.6634704795312064
aF0.9001531621461905
aF0.16642182863932056
aF0.37422749923907744
aF0.4764667494506285
aa(lp180
F0.2962312686096796
aF-0.04443460918681701
aF0.3509488788558553
aF-0.3658891755393186
aF0.6977407074378518
aaa(lp181
(lp182
F0.9230047639113808
aF-0.950666415990008
aF-0.6432328786251311
aF0.38089978101303373
aa(lp183
F1.0114223012103583
aF-0.05800993176229372
aF-0.2159594165869636
aF0.0923192130790861
aa(lp184
F0.7626053820272212
aF-0.7692557841504156
aF-0.5460585979247842
aF-0.3770351216482559
aa(lp185
F0.3823578784535265
aF0.23675860497468962
aF-0.8052048931963315
aF0.9647617953800156
aa(lp186
F0.04148497003081503
aF0.6765410463854783
aF0.5284654860227704
aF-0.4084463195638502
aaaF77.69999999999982
tp187
a((lp188
(lp189
(lp190
F0.06866547795327779
aF0.05667399027000134
aF0.5569537856578826
aF-0.9452884631584535
aF-0.25708296654489105
aa(lp191
F-0.25665315166897207
aF-0.11043151796478215
aF0.08749188146423292
aF-0.040991475852538
aF0.8311864428779787
aa(lp192
F-0.2675850378031022
aF-0.37857775575901953
aF0.23937829363435018
aF-0.12660937610360018
aF0.3737944711172656
aa(lp193
F0.6276180244688228
aF0.8382098995778509
aF-0.15344727416926376
aF0.9184082103277633
aF0.23861451790443958
aa(lp194
F-0.7306419628484733
aF-0.2570414724363534
aF-0.6863980617801682
aF-0.016388067410802884
aF-0.8476772183512125
aa(lp195
F-0.24470092301013802
aF0.6447634589294198
aF-0.7632604787258707
aF0.07020862636372656
aF0.2441355421940482
aa(lp196
F0.6634704795312064
aF0.9001531621461905
aF0.1872665742822358
aF0.4535898469539765
aF0.48175092233571
aa(lp197
F0.3744644755457261
aF-0.04443460918681701
aF0.3050326327990266
aF-0.26685479464664247
aF0.6977407074378518
aaa(lp198
(lp199
F0.9230047639113808
aF-0.950666415990008
aF-0.6432328786251311
aF0.288140054598376
aa(lp200
F1.0114223012103583
aF-0.05800993176229372
aF-0.21937763547786138
aF0.0923192130790861
aa(lp201
F0.7612247196472566
aF-0.7692557841504156
aF-0.5460585979247842
aF-0.3770351216482559
aa(lp202
F0.3216492271534129
aF0.23675860497468962
aF-0.7588424554164894
aF0.9521720364929847
aa(lp203
F0.04148497003081503
aF0.6765410463854783
aF0.4816667978582032
aF-0.4084463195638502
aaaF77.69999999999982
tp204
a((lp205
(lp206
(lp207
F0.06866547795327779
aF0.05667399027000134
aF0.5569537856578826
aF-0.9250857352721801
aF-0.25708296654489105
aa(lp208
F-0.25665315166897207
aF-0.06822010208733267
aF0.1665767897010385
aF-0.040991475852538
aF0.8304576516846395
aa(lp209
F-0.17386258296973392
aF-0.394529091077499
aF0.23937829363435018
aF-0.12660937610360018
aF0.4598045544879501
aa(lp210
F0.6276180244688228
aF0.7935889863430129
aF-0.09501004055386178
aF0.9184082103277633
aF0.23861451790443958
aa(lp211
F-0.728545314723576
aF-0.20434399581511378
aF-0.6696675880949834
aF-0.016388067410802884
aF-0.8476772183512125
aa(lp212
F-0.28020848703213763
aF0.7391661181191495
aF-0.8373650016675228
aF0.031352566910217705
aF0.2441355421940482
aa(lp213
F0.6243503757484972
aF0.8654456434462107
aF0.08512673897049768
aF0.4660118487580872
aF0.3429298546289551
aa(lp214
F0.3882858777093686
aF-0.04443460918681701
aF0.2978528529490344
aF-0.26685479464664247
aF0.6977407074378518
aaa(lp215
(lp216
F0.9230047639113808
aF-0.950666415990008
aF-0.5535804771774334
aF0.288140054598376
aa(lp217
F1.0114223012103583
aF-0.09089066775658479
aF-0.21937763547786138
aF0.0923192130790861
aa(lp218
F0.7612247196472566
aF-0.586491887826991
aF-0.5460585979247842
aF-0.3770351216482559
aa(lp219
F0.2710816864814532
aF0.23675860497468962
aF-0.8808238688918882
aF0.8930196242793216
aa(lp220
F0.04148497003081503
aF0.721874498056974
aF0.4745075300792204
aF-0.4084463195638502
aaaF77.69999999999982
tp221
a((lp222
(lp223
(lp224
F0.06866547795327779
aF0.05667399027000134
aF0.5569537856578826
aF-0.9250857352721801
aF-0.25708296654489105
aa(lp225
F-0.25665315166897207
aF-0.11043151796478215
aF0.1665767897010385
aF-0.040991475852538
aF0.8311864428779787
aa(lp226
F-0.17386258296973392
aF-0.37857775575901953
aF0.23937829363435018
aF-0.12660937610360018
aF0.4137266515712257
aa(lp227
F0.6276180244688228
aF0.8175033415513987
aF-0.15344727416926376
aF0.9522533629004644
aF0.23861451790443958
aa(lp228
F-0.728545314723576
aF-0.2959210653299112
aF-0.6696675880949834
aF-0.0029753720316325685
aF-0.7885187366446151
aa(lp229
F-0.28020848703213763
aF0.7391661181191495
aF-0.8373650016675228
aF0.031352566910217705
aF0.20321161359136705
aa(lp230
F0.6243503757484972
aF0.8024877887106825
aF0.16642182863932056
aF0.4660118487580872
aF0.4073755532087496
aa(lp231
F0.3882858777093686
aF-0.04443460918681701
aF0.2978528529490344
aF-0.3420140039960344
aF0.6977407074378518
aaa(lp232
(lp233
F0.9230047639113808
aF-0.950666415990008
aF-0.6432328786251311
aF0.288140054598376
aa(lp234
F1.0114223012103583
aF-0.10530919400219958
aF-0.22585760195636512
aF0.0923192130790861
aa(lp235
F0.7533482341459188
aF-0.6244157798219151
aF-0.5460585979247842
aF-0.3770351216482559
aa(lp236
F0.3216492271534129
aF0.23675860497468962
aF-0.83794642409949
aF0.9521720364929847
aa(lp237
F-0.00573364334669374
aF0.6765410463854783
aF0.4745075300792204
aF-0.40429888431712274
aaaF77.69999999999982
tp238
a((lp239
(lp240
(lp241
F0.06866547795327779
aF0.05667399027000134
aF0.5569537856578826
aF-0.8743583262742556
aF-0.25708296654489105
aa(lp242
F-0.3231428013163711
aF-0.11043151796478215
aF0.2637311297796592
aF-0.040991475852538
aF0.9106647185513694
aa(lp243
F-0.2675850378031022
aF-0.37651910317718257
aF0.1781734519798836
aF-0.029673151297906042
aF0.3737944711172656
aa(lp244
F0.6266485746298528
aF0.8382098995778509
aF-0.2485819743490894
aF0.9184082103277633
aF0.23861451790443958
aa(lp245
F-0.766567534249437
aF-0.3445704163232909
aF-0.6863980617801682
aF-0.07615294449332125
aF-0.8476772183512125
aa(lp246
F-0.32907205165613557
aF0.7391661181191495
aF-0.7632604787258707
aF-0.03360058573966118
aF0.2441355421940482
aa(lp247
F0.6634704795312064
aF0.9001531621461905
aF0.10790133636958318
aF0.3712235349953868
aF0.3798918603838635
aa(lp248
F0.23808948499964905
aF-0.04443460918681701
aF0.371527353071187
aF-0.26685479464664247
aF0.6348729513339212
aaa(lp249
(lp250
F0.9230047639113808
aF-1.0291625094229526
aF-0.7306920344420766
aF0.288140054598376
aa(lp251
F1.0429761360640835
aF-0.05800993176229372
aF-0.21937763547786138
aF0.07285831746098767
aa(lp252
F0.7821013939240752
aF-0.7692557841504156
aF-0.5460585979247842
aF-0.3770351216482559
aa(lp253
F0.3685335624223302
aF0.33540807839747644
aF-0.7385225158323566
aF0.9521720364929847
aa(lp254
F0.04148497003081503
aF0.6575683999637905
aF0.48562198686372265
aF-0.4084463195638502
aaaF77.69999999999982
tp255
a((lp256
(lp257
(lp258
F0.06866547795327779
aF0.14891285314932287
aF0.5569537856578826
aF-0.9250857352721801
aF-0.25708296654489105
aa(lp259
F-0.25665315166897207
aF-0.11768899263553412
aF0.14421545750750545
aF-0.07585182919643135
aF0.7470818810567716
aa(lp260
F-0.2675850378031022
aF-0.37857775575901953
aF0.15850586276532933
aF-0.18924928599060292
aF0.3737944711172656
aa(lp261
F0.6276180244688228
aF0.7787632166418987
aF-0.15344727416926376
aF0.9923874545174881
aF0.23861451790443958
aa(lp262
F-0.8234431273980891
aF-0.2806884938575682
aF-0.7719583155106666
aF0.03735920650041344
aF-0.8476772183512125
aa(lp263
F-0.24470092301013802
aF0.7391661181191495
aF-0.735454706521947
aF0.031352566910217705
aF0.2441355421940482
aa(lp264
F0.6634704795312064
aF0.9001531621461905
aF0.16642182863932056
aF0.31499983222720035
aF0.4764667494506285
aa(lp265
F0.2962312686096796
aF-0.1442405973656264
aF0.3509488788558553
aF-0.3658891755393186
aF0.6977407074378518
aaa(lp266
(lp267
F1.0225966478105286
aF-0.8997882620423614
aF-0.6432328786251311
aF0.38089978101303373
aa(lp268
F1.0114223012103583
aF-0.05800993176229372
aF-0.2159594165869636
aF0.07793578307910201
aa(lp269
F0.7626053820272212
aF-0.7692557841504156
aF-0.5460585979247842
aF-0.3770351216482559
aa(lp270
F0.30314860302689967
aF0.16529433336240684
aF-0.8950095924936179
aF0.9647617953800156
aa(lp271
F0.06673293836107642
aF0.6765410463854783
aF0.5284654860227704
aF-0.4084463195638502
aaaF77.69999999999982
tp272
a((lp273
(lp274
(lp275
F0.06866547795327779
aF0.14891285314932287
aF0.5569537856578826
aF-0.9641772698557074
aF-0.25708296654489105
aa(lp276
F-0.16387374033680635
aF-0.11043151796478215
aF0.14421545750750545
aF-0.040991475852538
aF0.7115164129322988
aa(lp277
F-0.2675850378031022
aF-0.37857775575901953
aF0.15850586276532933
aF-0.14480617226644552
aF0.3737944711172656
aa(lp278
F0.6276180244688228
aF0.8486912605688751
aF-0.15344727416926376
aF0.9923874545174881
aF0.23861451790443958
aa(lp279
F-0.8234431273980891
aF-0.316296615034252
aF-0.7673649874835818
aF-0.016388067410802884
aF-0.8476772183512125
aa(lp280
F-0.24470092301013802
aF0.7391661181191495
aF-0.8261608359637533
aF0.031352566910217705
aF0.2441355421940482
aa(lp281
F0.7390451554290648
aF0.9001531621461905
aF0.08010668249571318
aF0.36974882816944626
aF0.4764667494506285
aa(lp282
F0.2962312686096796
aF-0.04443460918681701
aF0.35306817682573
aF-0.34910449590266707
aF0.7151675550355001
aaa(lp283
(lp284
F0.935457305916091
aF-0.950666415990008
aF-0.6432328786251311
aF0.3398845926965316
aa(lp285
F1.0114223012103583
aF-0.05800993176229372
aF-0.2159594165869636
aF0.0923192130790861
aa(lp286
F0.7626053820272212
aF-0.7692557841504156
aF-0.5460585979247842
aF-0.3770351216482559
aa(lp287
F0.35019673704418214
aF0.23675860497468962
aF-0.8052048931963315
aF0.9686315482051948
aa(lp288
F0.04148497003081503
aF0.6765410463854783
aF0.5284654860227704
aF-0.4084463195638502
aaaF77.69999999999982
tp289
a((lp290
(lp291
(lp292
F0.03162941101597442
aF0.018279108449019643
aF0.5569537856578826
aF-0.8743583262742556
aF-0.25708296654489105
aa(lp293
F-0.3231428013163711
aF-0.11043151796478215
aF0.2637311297796592
aF-0.040991475852538
aF0.9106647185513694
aa(lp294
F-0.2675850378031022
aF-0.2881148705258957
aF0.1781734519798836
aF-0.057131842146000686
aF0.3737944711172656
aa(lp295
F0.6276180244688228
aF0.8382098995778509
aF-0.2485819743490894
aF0.9184082103277633
aF0.23861451790443958
aa(lp296
F-0.766567534249437
aF-0.3445704163232909
aF-0.6863980617801682
aF0.04103965479256239
aF-0.8476772183512125
aa(lp297
F-0.32907205165613557
aF0.7391661181191495
aF-0.7632604787258707
aF-0.03360058573966118
aF0.2441355421940482
aa(lp298
F0.6634704795312064
aF0.9001531621461905
aF0.10790133636958318
aF0.3712235349953868
aF0.3798918603838635
aa(lp299
F0.15361657937410836
aF-0.04443460918681701
aF0.29663434011838247
aF-0.26685479464664247
aF0.6348729513339212
aaa(lp300
(lp301
F0.859076136570989
aF-0.950666415990008
aF-0.6432328786251311
aF0.288140054598376
aa(lp302
F1.0429761360640835
aF-0.05800993176229372
aF-0.21937763547786138
aF0.07285831746098767
aa(lp303
F0.7821013939240752
aF-0.7692557841504156
aF-0.5460585979247842
aF-0.3770351216482559
aa(lp304
F0.3685335624223302
aF0.33540807839747644
aF-0.7385225158323566
aF0.9521720364929847
aa(lp305
F0.04148497003081503
aF0.6765410463854783
aF0.48562198686372265
aF-0.4084463195638502
aaaF77.64999999999982
tp306
a((lp307
(lp308
(lp309
F0.06866547795327779
aF0.05667399027000134
aF0.5569537856578826
aF-0.9452884631584535
aF-0.25708296654489105
aa(lp310
F-0.25665315166897207
aF-0.11043151796478215
aF0.08749188146423292
aF-0.040991475852538
aF0.8311864428779787
aa(lp311
F-0.2675850378031022
aF-0.37857775575901953
aF0.23937829363435018
aF-0.12660937610360018
aF0.3737944711172656
aa(lp312
F0.6276180244688228
aF0.8382098995778509
aF-0.15344727416926376
aF0.9184082103277633
aF0.23861451790443958
aa(lp313
F-0.7306419628484733
aF-0.2570414724363534
aF-0.6863980617801682
aF-0.016388067410802884
aF-0.8476772183512125
aa(lp314
F-0.24470092301013802
aF0.6447634589294198
aF-0.7632604787258707
aF0.07020862636372656
aF0.2441355421940482
aa(lp315
F0.6634704795312064
aF0.9001531621461905
aF0.1872665742822358
aF0.4535898469539765
aF0.48175092233571
aa(lp316
F0.3744644755457261
aF0.02694563409756292
aF0.3050326327990266
aF-0.26685479464664247
aF0.6977407074378518
aaa(lp317
(lp318
F0.9230047639113808
aF-0.950666415990008
aF-0.6467196990977023
aF0.30689946605720103
aa(lp319
F1.0114223012103583
aF-0.05800993176229372
aF-0.21937763547786138
aF0.0923192130790861
aa(lp320
F0.7612247196472566
aF-0.7692557841504156
aF-0.5460585979247842
aF-0.3770351216482559
aa(lp321
F0.3216492271534129
aF0.23675860497468962
aF-0.7588424554164894
aF0.9521720364929847
aa(lp322
F0.04148497003081503
aF0.6765410463854783
aF0.4816667978582032
aF-0.4084463195638502
aaaF77.64999999999982
tp323
a((lp324
(lp325
(lp326
F0.06866547795327779
aF0.05667399027000134
aF0.5569537856578826
aF-0.8743583262742556
aF-0.25708296654489105
aa(lp327
F-0.3231428013163711
aF-0.11043151796478215
aF0.2637311297796592
aF-0.040991475852538
aF0.9106647185513694
aa(lp328
F-0.2675850378031022
aF-0.37651910317718257
aF0.1781734519798836
aF-0.029673151297906042
aF0.3737944711172656
aa(lp329
F0.6276180244688228
aF0.8382098995778509
aF-0.2485819743490894
aF0.9184082103277633
aF0.23861451790443958
aa(lp330
F-0.766567534249437
aF-0.3445704163232909
aF-0.6863980617801682
aF-0.016388067410802884
aF-0.8476772183512125
aa(lp331
F-0.32907205165613557
aF0.8005266018268306
aF-0.7632604787258707
aF-0.03360058573966118
aF0.2441355421940482
aa(lp332
F0.6634704795312064
aF0.9001531621461905
aF0.10790133636958318
aF0.3712235349953868
aF0.3798918603838635
aa(lp333
F0.23808948499964905
aF-0.04443460918681701
aF0.29663434011838247
aF-0.26685479464664247
aF0.6348729513339212
aaa(lp334
(lp335
F0.9230047639113808
aF-0.950666415990008
aF-0.6432328786251311
aF0.288140054598376
aa(lp336
F1.0429761360640835
aF-0.04670061523436284
aF-0.21937763547786138
aF0.07285831746098767
aa(lp337
F0.7821013939240752
aF-0.7692557841504156
aF-0.5460585979247842
aF-0.3770351216482559
aa(lp338
F0.3685335624223302
aF0.33540807839747644
aF-0.7385225158323566
aF0.9521720364929847
aa(lp339
F0.04148497003081503
aF0.6533718360296964
aF0.4835127127240985
aF-0.32140193165027153
aaaF77.64999999999982
tp340
a((lp341
(lp342
(lp343
F0.06866547795327779
aF0.05667399027000134
aF0.5569537856578826
aF-0.9452884631584535
aF-0.25708296654489105
aa(lp344
F-0.25665315166897207
aF-0.11043151796478215
aF0.08749188146423292
aF-0.040991475852538
aF0.8311864428779787
aa(lp345
F-0.2675850378031022
aF-0.37857775575901953
aF0.3365671622982851
aF-0.12660937610360018
aF0.3737944711172656
aa(lp346
F0.6276180244688228
aF0.8382098995778509
aF-0.15344727416926376
aF0.8293477989726554
aF0.23861451790443958
aa(lp347
F-0.7306419628484733
aF-0.2570414724363534
aF-0.6899522791970112
aF-0.016388067410802884
aF-0.8476772183512125
aa(lp348
F-0.24470092301013802
aF0.6447634589294198
aF-0.7632604787258707
aF0.09259478701025413
aF0.2441355421940482
aa(lp349
F0.6634704795312064
aF0.9001531621461905
aF0.1872665742822358
aF0.4535898469539765
aF0.48175092233571
aa(lp350
F0.3744644755457261
aF-0.04443460918681701
aF0.3050326327990266
aF-0.26685479464664247
aF0.6977407074378518
aaa(lp351
(lp352
F0.9498941122867244
aF-0.99250707320559
aF-0.6432328786251311
aF0.288140054598376
aa(lp353
F1.0114223012103583
aF-0.05800993176229372
aF-0.21937763547786138
aF0.0923192130790861
aa(lp354
F0.8597039446214004
aF-0.7692557841504156
aF-0.5634176480304025
aF-0.3770351216482559
aa(lp355
F0.3216492271534129
aF0.23675860497468962
aF-0.7588424554164894
aF0.9521720364929847
aa(lp356
F0.04148497003081503
aF0.6765410463854783
aF0.4816667978582032
aF-0.4084463195638502
aaaF77.64999999999982
tp357
a((lp358
(lp359
(lp360
F-0.09851368395637605
aF0.14712480423810634
aF0.5242357859550547
aF-0.9250857352721801
aF-0.2609596676032791
aa(lp361
F-0.25665315166897207
aF-0.15486722870460534
aF0.09237426408164807
aF-0.0752439411702252
aF0.8839934166037932
aa(lp362
F-0.23553707603941676
aF-0.3634859962004369
aF0.23937829363435018
aF-0.06189051792917036
aF0.3737944711172656
aa(lp363
F0.6282096277127088
aF0.9325280780485139
aF-0.1987722036504201
aF0.9184082103277633
aF0.24608677205607354
aa(lp364
F-0.7013187721365788
aF-0.3564141187491984
aF-0.6863980617801682
aF-0.07535460189285109
aF-0.8476772183512125
aa(lp365
F-0.23796986645620008
aF0.7391661181191495
aF-0.8220346456482747
aF0.031352566910217705
aF0.2441355421940482
aa(lp366
F0.6436333022905671
aF0.920397334707937
aF0.1129644585060216
aF0.4535898469539765
aF0.37769307919492107
aa(lp367
F0.3674866934043756
aF-0.04443460918681701
aF0.2978528529490344
aF-0.18753067684490532
aF0.6240369725115587
aaa(lp368
(lp369
F0.939764995673687
aF-0.950666415990008
aF-0.7272463127486078
aF0.2570234172127023
aa(lp370
F0.9161248211646152
aF-0.0664448999820555
aF-0.2220285340719643
aF0.0923192130790861
aa(lp371
F0.8313340634360785
aF-0.7692557841504156
aF-0.5460585979247842
aF-0.32777402598576894
aa(lp372
F0.30317125252399113
aF0.23675860497468962
aF-0.7610847798211101
aF1.0636280450649145
aa(lp373
F0.06860732393341626
aF0.5902355618792213
aF0.5759410263402275
aF-0.38877255769834596
aaaF77.59999999999982
tp374
a((lp375
(lp376
(lp377
F-0.06083879239433312
aF-0.010730093169177023
aF0.4746812298495242
aF-0.9250857352721801
aF-0.25708296654489105
aa(lp378
F-0.29021907994650975
aF-0.11043151796478215
aF0.08911597126927263
aF-0.040991475852538
aF0.9882508181404851
aa(lp379
F-0.2704556758573299
aF-0.28017923474759676
aF0.14854096466290526
aF-0.12660937610360018
aF0.4353771838448833
aa(lp380
F0.6282096277127088
aF0.8206472642034297
aF-0.26201234341707647
aF0.9950384204543712
aF0.19031739048039487
aa(lp381
F-0.7578030500268935
aF-0.3564141187491984
aF-0.6863980617801682
aF-0.052305986731603145
aF-0.8476772183512125
aa(lp382
F-0.22608960159987226
aF0.7391661181191495
aF-0.7477683349621919
aF0.031352566910217705
aF0.2441355421940482
aa(lp383
F0.6634704795312064
aF0.920397334707937
aF0.1129644585060216
aF0.4535898469539765
aF0.2681984187400063
aa(lp384
F0.43465954496368314
aF-0.04443460918681701
aF0.2978528529490344
aF-0.1632461702754936
aF0.7018099481133607
aaa(lp385
(lp386
F0.9674898455617494
aF-0.8791065542440072
aF-0.7162884372154863
aF0.22216410656034202
aa(lp387
F0.9972976130520318
aF-0.06105514938663668
aF-0.30329481803276104
aF0.10687574951442175
aa(lp388
F0.7821013939240752
aF-0.7692557841504156
aF-0.4492115394466522
aF-0.32777402598576894
aa(lp389
F0.30317125252399113
aF0.27272816274865613
aF-0.8314475030880114
aF1.041386174641385
aa(lp390
F0.06860732393341626
aF0.5902355618792213
aF0.5759410263402275
aF-0.4084463195638502
aaaF77.59999999999982
tp391
a((lp392
(lp393
(lp394
F0.10508890324931601
aF0.14891285314932287
aF0.5569537856578826
aF-0.9250857352721801
aF-0.25708296654489105
aa(lp395
F-0.2620805480830454
aF-0.19241149317562048
aF0.14421545750750545
aF-0.040991475852538
aF0.7470818810567716
aa(lp396
F-0.2675850378031022
aF-0.32463887018319754
aF0.15850586276532933
aF-0.18924928599060292
aF0.3737944711172656
aa(lp397
F0.6276180244688228
aF0.8382098995778509
aF-0.20248441220858315
aF0.9923874545174881
aF0.23861451790443958
aa(lp398
F-0.8966752918041022
aF-0.43604902327521744
aF-0.7673649874835818
aF-0.016388067410802884
aF-0.8476772183512125
aa(lp399
F-0.24470092301013802
aF0.7391661181191495
aF-0.7632604787258707
aF0.031352566910217705
aF0.2441355421940482
aa(lp400
F0.7151338046744625
aF0.9001531621461905
aF0.21968940224098116
aF0.37422749923907744
aF0.5906351010971351
aa(lp401
F0.36227820572261493
aF-0.04443460918681701
aF0.3509488788558553
aF-0.3658891755393186
aF0.6815001215151595
aaa(lp402
(lp403
F0.869505256484537
aF-0.950666415990008
aF-0.6339164871574794
aF0.38089978101303373
aa(lp404
F1.0114223012103583
aF-0.05800993176229372
aF-0.2159594165869636
aF0.18413704217615084
aa(lp405
F0.7543137385739073
aF-0.7692557841504156
aF-0.5460585979247842
aF-0.44238840099544474
aa(lp406
F0.3823578784535265
aF0.23675860497468962
aF-0.8052048931963315
aF0.9647617953800156
aa(lp407
F0.04148497003081503
aF0.650214288015702
aF0.5284654860227704
aF-0.49938218124069267
aaaF77.59999999999982
tp408
a((lp409
(lp410
(lp411
F-0.0792498797370909
aF0.05667399027000134
aF0.4746812298495242
aF-0.9250857352721801
aF-0.25708296654489105
aa(lp412
F-0.25665315166897207
aF-0.11043151796478215
aF0.09130549200380499
aF-0.040991475852538
aF0.9885452331928287
aa(lp413
F-0.2675850378031022
aF-0.37857775575901953
aF0.23937829363435018
aF-0.12660937610360018
aF0.3737944711172656
aa(lp414
F0.6282096277127088
aF0.8397324860046375
aF-0.22648927398845242
aF0.9184082103277633
aF0.23244699161469445
aa(lp415
F-0.8263951662166246
aF-0.3564141187491984
aF-0.6863980617801682
aF-0.016388067410802884
aF-0.8476772183512125
aa(lp416
F-0.23796986645620008
aF0.7391661181191495
aF-0.8220346456482747
aF0.031352566910217705
aF0.2441355421940482
aa(lp417
F0.6634704795312064
aF0.920397334707937
aF0.1129644585060216
aF0.4535898469539765
aF0.37769307919492107
aa(lp418
F0.3674866934043756
aF-0.04443460918681701
aF0.2643091183330415
aF-0.21248344017168036
aF0.7018099481133607
aaa(lp419
(lp420
F0.939764995673687
aF-0.950666415990008
aF-0.7162884372154863
aF0.2570234172127023
aa(lp421
F0.9972976130520318
aF-0.0664448999820555
aF-0.30329481803276104
aF0.0923192130790861
aa(lp422
F0.7821013939240752
aF-0.7692557841504156
aF-0.5460585979247842
aF-0.32777402598576894
aa(lp423
F0.34246969994407706
aF0.23675860497468962
aF-0.8314475030880114
aF1.041386174641385
aa(lp424
F0.06860732393341626
aF0.5902355618792213
aF0.5759410263402275
aF-0.4084463195638502
aaaF77.59999999999982
tp425
a((lp426
(lp427
(lp428
F0.06866547795327779
aF0.14891285314932287
aF0.5569537856578826
aF-0.9641772698557074
aF-0.25708296654489105
aa(lp429
F-0.16387374033680635
aF-0.11043151796478215
aF0.14421545750750545
aF-0.040991475852538
aF0.7470818810567716
aa(lp430
F-0.2675850378031022
aF-0.37857775575901953
aF0.15850586276532933
aF-0.18924928599060292
aF0.3737944711172656
aa(lp431
F0.6276180244688228
aF0.8486912605688751
aF-0.15344727416926376
aF0.9923874545174881
aF0.23861451790443958
aa(lp432
F-0.8234431273980891
aF-0.316296615034252
aF-0.7673649874835818
aF-0.016388067410802884
aF-0.8476772183512125
aa(lp433
F-0.3116977374897304
aF0.7391661181191495
aF-0.8261608359637533
aF0.031352566910217705
aF0.2441355421940482
aa(lp434
F0.6634704795312064
aF0.9001531621461905
aF0.16642182863932056
aF0.36974882816944626
aF0.4764667494506285
aa(lp435
F0.2962312686096796
aF-0.04443460918681701
aF0.35306817682573
aF-0.34910449590266707
aF0.7151675550355001
aaa(lp436
(lp437
F0.935457305916091
aF-0.950666415990008
aF-0.6432328786251311
aF0.3398845926965316
aa(lp438
F1.0114223012103583
aF-0.05800993176229372
aF-0.2159594165869636
aF0.0923192130790861
aa(lp439
F0.7626053820272212
aF-0.7692557841504156
aF-0.5460585979247842
aF-0.3770351216482559
aa(lp440
F0.35019673704418214
aF0.23675860497468962
aF-0.8052048931963315
aF0.9647617953800156
aa(lp441
F0.04148497003081503
aF0.6765410463854783
aF0.5284654860227704
aF-0.4084463195638502
aaaF77.59999999999982
tp442
a((lp443
(lp444
(lp445
F-0.0792498797370909
aF0.05667399027000134
aF0.5615546462227531
aF-0.9694334091513738
aF-0.2609596676032791
aa(lp446
F-0.25665315166897207
aF-0.12366023279103196
aF0.1385935622261581
aF-0.040991475852538
aF0.9917832706905806
aa(lp447
F-0.2675850378031022
aF-0.3466348571226135
aF0.23937829363435018
aF-0.10941179035597007
aF0.3737944711172656
aa(lp448
F0.6634997309819517
aF0.8397324860046375
aF-0.1987722036504201
aF0.9184082103277633
aF0.23244699161469445
aa(lp449
F-0.8439003228899857
aF-0.3564141187491984
aF-0.6863980617801682
aF-0.016388067410802884
aF-0.8476772183512125
aa(lp450
F-0.23796986645620008
aF0.7391661181191495
aF-0.8220346456482747
aF0.031352566910217705
aF0.22710044670626667
aa(lp451
F0.6634704795312064
aF0.8228197506278445
aF0.10535905587613516
aF0.4535898469539765
aF0.37769307919492107
aa(lp452
F0.3674866934043756
aF-0.04443460918681701
aF0.2978528529490344
aF-0.21248344017168036
aF0.6240369725115587
aaa(lp453
(lp454
F0.9451323607286402
aF-0.8290912700611901
aF-0.8038549010467527
aF0.19806916370759384
aa(lp455
F1.0105088329653258
aF-0.0664448999820555
aF-0.3810829808101108
aF0.0923192130790861
aa(lp456
F0.8313340634360785
aF-0.8088312790090202
aF-0.5460585979247842
aF-0.26190299691149227
aa(lp457
F0.30317125252399113
aF0.23675860497468962
aF-0.8614083091790864
aF1.041386174641385
aa(lp458
F0.06860732393341626
aF0.5902355618792213
aF0.5759410263402275
aF-0.3465757497831634
aaaF77.54999999999981
tp459
a((lp460
(lp461
(lp462
F-0.0792498797370909
aF0.05667399027000134
aF0.5242357859550547
aF-0.9783095052501719
aF-0.2609596676032791
aa(lp463
F-0.25665315166897207
aF-0.19863683083843872
aF0.09237426408164807
aF-0.011800003148927665
aF0.9245391405069612
aa(lp464
F-0.34472690639811665
aF-0.2898032713308005
aF0.23937829363435018
aF-0.10941179035597007
aF0.4187330695311857
aa(lp465
F0.6805209136786887
aF0.8397324860046375
aF-0.1987722036504201
aF0.9728689295357845
aF0.23244699161469445
aa(lp466
F-0.766567534249437
aF-0.3564141187491984
aF-0.6863980617801682
aF-0.05043998450165669
aF-0.8476772183512125
aa(lp467
F-0.23796986645620008
aF0.7391661181191495
aF-0.8846117681925638
aF0.031352566910217705
aF0.2441355421940482
aa(lp468
F0.595528000589215
aF0.7659180866973058
aF0.1129644585060216
aF0.4535898469539765
aF0.37769307919492107
aa(lp469
F0.3674866934043756
aF-0.06407443241375171
aF0.2978528529490344
aF-0.1255038576258644
aF0.6240369725115587
aaa(lp470
(lp471
F0.939764995673687
aF-0.9235491167555828
aF-0.744880819460616
aF0.2570234172127023
aa(lp472
F1.0166036417602655
aF-0.08864406962782789
aF-0.28619612102672143
aF0.0923192130790861
aa(lp473
F0.7939535630749001
aF-0.7692557841504156
aF-0.5460585979247842
aF-0.255275992547486
aa(lp474
F0.3486283251167009
aF0.23675860497468962
aF-0.8314475030880114
aF1.041386174641385
aa(lp475
F0.06860732393341626
aF0.6529981796003912
aF0.5759410263402275
aF-0.34811604594637524
aaaF77.54999999999981
tp476
a((lp477
(lp478
(lp479
F-0.0767400628516215
aF-0.010730093169177023
aF0.4746812298495242
aF-0.8537761890566863
aF-0.25708296654489105
aa(lp480
F-0.29021907994650975
aF-0.11043151796478215
aF0.08911597126927263
aF-0.040991475852538
aF0.9882508181404851
aa(lp481
F-0.2704556758573299
aF-0.28017923474759676
aF0.16759022004356874
aF-0.12660937610360018
aF0.4353771838448833
aa(lp482
F0.6697523491199152
aF0.8206472642034297
aF-0.26201234341707647
aF0.9184082103277633
aF0.19031739048039487
aa(lp483
F-0.7578030500268935
aF-0.3564141187491984
aF-0.6863980617801682
aF-0.052305986731603145
aF-0.8476772183512125
aa(lp484
F-0.22608960159987226
aF0.7391661181191495
aF-0.7477683349621919
aF0.031352566910217705
aF0.2441355421940482
aa(lp485
F0.6141910521815146
aF0.920397334707937
aF0.1129644585060216
aF0.4535898469539765
aF0.2681984187400063
aa(lp486
F0.43465954496368314
aF-0.04443460918681701
aF0.2978528529490344
aF-0.14052135714774733
aF0.7018099481133607
aaa(lp487
(lp488
F0.9674898455617494
aF-0.950666415990008
aF-0.7059282026262597
aF0.22216410656034202
aa(lp489
F0.9972976130520318
aF-0.0664448999820555
aF-0.30329481803276104
aF0.0923192130790861
aa(lp490
F0.7821013939240752
aF-0.7692557841504156
aF-0.4492115394466522
aF-0.32777402598576894
aa(lp491
F0.3703957521036262
aF0.27272816274865613
aF-0.8675854414860654
aF1.041386174641385
aa(lp492
F0.06860732393341626
aF0.6357794501509588
aF0.5759410263402275
aF-0.4084463195638502
aaaF77.54999999999981
tp493
a((lp494
(lp495
(lp496
F-0.0792498797370909
aF0.05667399027000134
aF0.4780406740773427
aF-0.9250857352721801
aF-0.25708296654489105
aa(lp497
F-0.25665315166897207
aF-0.11043151796478215
aF0.09237426408164807
aF-0.040991475852538
aF0.8936788557633338
aa(lp498
F-0.28035484457132964
aF-0.37857775575901953
aF0.23937829363435018
aF-0.21275680002978134
aF0.4297174444847438
aa(lp499
F0.6541394375768436
aF0.8397324860046375
aF-0.22648927398845242
aF0.9184082103277633
aF0.23244699161469445
aa(lp500
F-0.766567534249437
aF-0.3564141187491984
aF-0.6863980617801682
aF-0.016388067410802884
aF-0.8476772183512125
aa(lp501
F-0.23796986645620008
aF0.786051541354641
aF-0.8220346456482747
aF0.031352566910217705
aF0.2441355421940482
aa(lp502
F0.6634704795312064
aF0.920397334707937
aF0.1129644585060216
aF0.4535898469539765
aF0.37769307919492107
aa(lp503
F0.3674866934043756
aF0.007310396088240422
aF0.2978528529490344
aF-0.21248344017168036
aF0.7018099481133607
aaa(lp504
(lp505
F0.939764995673687
aF-0.9428479248591145
aF-0.7162884372154863
aF0.2570234172127023
aa(lp506
F0.9972976130520318
aF-0.0664448999820555
aF-0.30329481803276104
aF0.0923192130790861
aa(lp507
F0.88026524922886
aF-0.743223040186068
aF-0.5460585979247842
aF-0.32777402598576894
aa(lp508
F0.2753241097744388
aF0.23675860497468962
aF-0.8314475030880114
aF1.0323351348436947
aa(lp509
F0.06860732393341626
aF0.5902355618792213
aF0.5246149340257719
aF-0.4084463195638502
aaaF77.54999999999981
tp510
a((lp511
(lp512
(lp513
F0.10508890324931601
aF0.14891285314932287
aF0.5569537856578826
aF-0.9250857352721801
aF-0.25708296654489105
aa(lp514
F-0.25665315166897207
aF-0.19241149317562048
aF0.14421545750750545
aF-0.040991475852538
aF0.7470818810567716
aa(lp515
F-0.2675850378031022
aF-0.32463887018319754
aF0.15491468212256834
aF-0.18924928599060292
aF0.3737944711172656
aa(lp516
F0.5410411601877995
aF0.8382098995778509
aF-0.20248441220858315
aF0.9923874545174881
aF0.23861451790443958
aa(lp517
F-0.8966752918041022
aF-0.34517588454296877
aF-0.7673649874835818
aF-0.016388067410802884
aF-0.8476772183512125
aa(lp518
F-0.24470092301013802
aF0.7391661181191495
aF-0.7632604787258707
aF0.031352566910217705
aF0.2441355421940482
aa(lp519
F0.7151338046744625
aF0.9001531621461905
aF0.24142955866614588
aF0.37422749923907744
aF0.58747462940901
aa(lp520
F0.4555912462870676
aF-0.04443460918681701
aF0.3509488788558553
aF-0.3658891755393186
aF0.6815001215151595
aaa(lp521
(lp522
F0.9230047639113808
aF-0.950666415990008
aF-0.6339164871574794
aF0.38089978101303373
aa(lp523
F1.0114223012103583
aF-0.05800993176229372
aF-0.2159594165869636
aF0.18413704217615084
aa(lp524
F0.7743720551273592
aF-0.7518800438217521
aF-0.5460585979247842
aF-0.34892585507710117
aa(lp525
F0.3823578784535265
aF0.23675860497468962
aF-0.8052048931963315
aF1.0258405843771665
aa(lp526
F0.13039083456915546
aF0.650214288015702
aF0.4652952923935003
aF-0.4084463195638502
aaaF77.54999999999981
tp527
a((lp528
(lp529
(lp530
F0.10508890324931601
aF0.14891285314932287
aF0.5569537856578826
aF-0.9798584920811845
aF-0.25708296654489105
aa(lp531
F-0.25665315166897207
aF-0.19241149317562048
aF0.14421545750750545
aF-0.040991475852538
aF0.7470818810567716
aa(lp532
F-0.2675850378031022
aF-0.32463887018319754
aF0.15850586276532933
aF-0.18924928599060292
aF0.3737944711172656
aa(lp533
F0.6276180244688228
aF0.8382098995778509
aF-0.20248441220858315
aF0.9923874545174881
aF0.23861451790443958
aa(lp534
F-0.8966752918041022
aF-0.34517588454296877
aF-0.7673649874835818
aF-0.016388067410802884
aF-0.8476772183512125
aa(lp535
F-0.24470092301013802
aF0.7391661181191495
aF-0.7632604787258707
aF0.031352566910217705
aF0.2441355421940482
aa(lp536
F0.7151338046744625
aF0.9001531621461905
aF0.24142955866614588
aF0.37422749923907744
aF0.58747462940901
aa(lp537
F0.36227820572261493
aF-0.04443460918681701
aF0.3509488788558553
aF-0.3658891755393186
aF0.6815001215151595
aaa(lp538
(lp539
F0.9230047639113808
aF-0.950666415990008
aF-0.6225939689171474
aF0.38089978101303373
aa(lp540
F1.0114223012103583
aF-0.08277292521612764
aF-0.2159594165869636
aF0.18413704217615084
aa(lp541
F0.7543137385739073
aF-0.7692557841504156
aF-0.5460585979247842
aF-0.36429688641662195
aa(lp542
F0.3823578784535265
aF0.23675860497468962
aF-0.8052048931963315
aF0.9647617953800156
aa(lp543
F0.053876221904878605
aF0.650214288015702
aF0.5284654860227704
aF-0.4084463195638502
aaaF77.54999999999981
tp544
a((lp545
(lp546
(lp547
F-0.0792498797370909
aF0.05667399027000134
aF0.6209541178198327
aF-0.9694334091513738
aF-0.2609596676032791
aa(lp548
F-0.25665315166897207
aF-0.15486722870460534
aF0.1385935622261581
aF-0.040991475852538
aF0.9245391405069612
aa(lp549
F-0.2675850378031022
aF-0.3466348571226135
aF0.23937829363435018
aF-0.10941179035597007
aF0.3737944711172656
aa(lp550
F0.6282096277127088
aF0.8397324860046375
aF-0.1987722036504201
aF0.9184082103277633
aF0.23244699161469445
aa(lp551
F-0.8439003228899857
aF-0.3564141187491984
aF-0.6863980617801682
aF-0.016388067410802884
aF-0.8476772183512125
aa(lp552
F-0.23796986645620008
aF0.7391661181191495
aF-0.8465283326616005
aF0.031352566910217705
aF0.22710044670626667
aa(lp553
F0.6634704795312064
aF0.8228197506278445
aF0.1129644585060216
aF0.4535898469539765
aF0.37769307919492107
aa(lp554
F0.3674866934043756
aF-0.04443460918681701
aF0.2978528529490344
aF-0.21248344017168036
aF0.6240369725115587
aaa(lp555
(lp556
F0.939764995673687
aF-0.7616482925601756
aF-0.8038549010467527
aF0.19806916370759384
aa(lp557
F1.0105088329653258
aF-0.0664448999820555
aF-0.3810829808101108
aF0.0923192130790861
aa(lp558
F0.8313340634360785
aF-0.8088312790090202
aF-0.5460585979247842
aF-0.26190299691149227
aa(lp559
F0.30317125252399113
aF0.23675860497468962
aF-0.8314475030880114
aF1.041386174641385
aa(lp560
F0.06860732393341626
aF0.5902355618792213
aF0.5759410263402275
aF-0.3465757497831634
aaaF77.54999999999981
tp561
a((lp562
(lp563
(lp564
F0.10508890324931601
aF0.14891285314932287
aF0.5569537856578826
aF-0.9250857352721801
aF-0.25708296654489105
aa(lp565
F-0.25665315166897207
aF-0.19241149317562048
aF0.14421545750750545
aF-0.040991475852538
aF0.7633397513797687
aa(lp566
F-0.2675850378031022
aF-0.32463887018319754
aF0.15850586276532933
aF-0.18924928599060292
aF0.3737944711172656
aa(lp567
F0.6276180244688228
aF0.7661451294813058
aF-0.20248441220858315
aF0.9923874545174881
aF0.23861451790443958
aa(lp568
F-0.8966752918041022
aF-0.34517588454296877
aF-0.7673649874835818
aF-0.016388067410802884
aF-0.8476772183512125
aa(lp569
F-0.24470092301013802
aF0.7391661181191495
aF-0.7632604787258707
aF0.031352566910217705
aF0.2441355421940482
aa(lp570
F0.7151338046744625
aF0.9001531621461905
aF0.24142955866614588
aF0.45698200124698984
aF0.5433830936803057
aa(lp571
F0.36227820572261493
aF-0.04443460918681701
aF0.3509488788558553
aF-0.3658891755393186
aF0.6815001215151595
aaa(lp572
(lp573
F0.9230047639113808
aF-0.950666415990008
aF-0.6339164871574794
aF0.38089978101303373
aa(lp574
F1.0114223012103583
aF-0.05800993176229372
aF-0.2159594165869636
aF0.18413704217615084
aa(lp575
F0.7782324717212501
aF-0.7692557841504156
aF-0.5460585979247842
aF-0.44238840099544474
aa(lp576
F0.3823578784535265
aF0.23675860497468962
aF-0.8052048931963315
aF0.9995840250564517
aa(lp577
F0.04148497003081503
aF0.650214288015702
aF0.6061921489528048
aF-0.4084463195638502
aaaF77.54999999999981
tp578
a((lp579
(lp580
(lp581
F-0.0792498797370909
aF0.05667399027000134
aF0.4746812298495242
aF-0.9250857352721801
aF-0.2592408382587201
aa(lp582
F-0.3262970388933897
aF-0.1337899071064588
aF0.09237426408164807
aF-0.040991475852538
aF0.9245391405069612
aa(lp583
F-0.16753567277541315
aF-0.37857775575901953
aF0.23937829363435018
aF-0.12660937610360018
aF0.3737944711172656
aa(lp584
F0.6282096277127088
aF0.8397324860046375
aF-0.22648927398845242
aF0.9184082103277633
aF0.21151720061128973
aa(lp585
F-0.8465484356439412
aF-0.3564141187491984
aF-0.6863980617801682
aF-0.016388067410802884
aF-0.8476772183512125
aa(lp586
F-0.23796986645620008
aF0.7589185525358717
aF-0.8220346456482747
aF0.031352566910217705
aF0.2441355421940482
aa(lp587
F0.6634704795312064
aF0.9817749096621387
aF0.1129644585060216
aF0.4535898469539765
aF0.37769307919492107
aa(lp588
F0.3674866934043756
aF-0.04443460918681701
aF0.2978528529490344
aF-0.322590682623129
aF0.7018099481133607
aaa(lp589
(lp590
F0.939764995673687
aF-0.950666415990008
aF-0.7162884372154863
aF0.2570234172127023
aa(lp591
F0.9972976130520318
aF-0.0664448999820555
aF-0.3946098587659656
aF0.011844918815553815
aa(lp592
F0.7821013939240752
aF-0.7692557841504156
aF-0.5460585979247842
aF-0.32777402598576894
aa(lp593
F0.30317125252399113
aF0.23675860497468962
aF-0.8314475030880114
aF1.041386174641385
aa(lp594
F0.06860732393341626
aF0.5902355618792213
aF0.5759410263402275
aF-0.4084463195638502
aaaF77.49999999999982
tp595
a((lp596
(lp597
(lp598
F0.06866547795327779
aF0.14891285314932287
aF0.5569537856578826
aF-0.9641772698557074
aF-0.25708296654489105
aa(lp599
F-0.16387374033680635
aF-0.11043151796478215
aF0.14421545750750545
aF-0.040991475852538
aF0.7033609964673437
aa(lp600
F-0.2675850378031022
aF-0.37857775575901953
aF0.15850586276532933
aF-0.18924928599060292
aF0.301066383143811
aa(lp601
F0.6276180244688228
aF0.8486912605688751
aF-0.15344727416926376
aF0.9923874545174881
aF0.23861451790443958
aa(lp602
F-0.8234431273980891
aF-0.316296615034252
aF-0.7673649874835818
aF-0.016388067410802884
aF-0.8476772183512125
aa(lp603
F-0.24470092301013802
aF0.7254417084586701
aF-0.8261608359637533
aF0.031352566910217705
aF0.2441355421940482
aa(lp604
F0.6634704795312064
aF0.8579878642653072
aF0.16642182863932056
aF0.2876296191406358
aF0.4764667494506285
aa(lp605
F0.2962312686096796
aF-0.04443460918681701
aF0.35306817682573
aF-0.34910449590266707
aF0.7151675550355001
aaa(lp606
(lp607
F0.935457305916091
aF-0.950666415990008
aF-0.6432328786251311
aF0.3398845926965316
aa(lp608
F1.0114223012103583
aF-0.05800993176229372
aF-0.1783211479389554
aF0.0923192130790861
aa(lp609
F0.7626053820272212
aF-0.7692557841504156
aF-0.5460585979247842
aF-0.4690971458190513
aa(lp610
F0.35019673704418214
aF0.23675860497468962
aF-0.8052048931963315
aF0.9647617953800156
aa(lp611
F0.04148497003081503
aF0.6765410463854783
aF0.5284654860227704
aF-0.4084463195638502
aaaF77.49999999999982
tp612
a((lp613
(lp614
(lp615
F-0.0792498797370909
aF0.05667399027000134
aF0.4780406740773427
aF-0.9250857352721801
aF-0.25708296654489105
aa(lp616
F-0.25665315166897207
aF-0.11043151796478215
aF0.09237426408164807
aF-0.040991475852538
aF0.8936788557633338
aa(lp617
F-0.28035484457132964
aF-0.37857775575901953
aF0.23937829363435018
aF-0.12660937610360018
aF0.3536181911128363
aa(lp618
F0.6541394375768436
aF0.8397324860046375
aF-0.22648927398845242
aF0.9184082103277633
aF0.23244699161469445
aa(lp619
F-0.766567534249437
aF-0.3564141187491984
aF-0.6863980617801682
aF-0.016388067410802884
aF-0.8476772183512125
aa(lp620
F-0.23796986645620008
aF0.7901418982211327
aF-0.8220346456482747
aF0.031352566910217705
aF0.2441355421940482
aa(lp621
F0.6634704795312064
aF0.920397334707937
aF0.1953117798839465
aF0.4535898469539765
aF0.37769307919492107
aa(lp622
F0.3674866934043756
aF-0.014501954172596879
aF0.2978528529490344
aF-0.21248344017168036
aF0.7018099481133607
aaa(lp623
(lp624
F0.939764995673687
aF-0.9295222604313276
aF-0.7162884372154863
aF0.2570234172127023
aa(lp625
F0.9506940598977728
aF-0.0664448999820555
aF-0.30329481803276104
aF0.0923192130790861
aa(lp626
F0.7821013939240752
aF-0.7692557841504156
aF-0.5460585979247842
aF-0.32777402598576894
aa(lp627
F0.30317125252399113
aF0.23675860497468962
aF-0.8830248706075762
aF1.041386174641385
aa(lp628
F0.06860732393341626
aF0.5902355618792213
aF0.6138861436650509
aF-0.4084463195638502
aaaF77.49999999999982
tp629
a((lp630
(lp631
(lp632
F-0.0767400628516215
aF-0.010730093169177023
aF0.4746812298495242
aF-0.9250857352721801
aF-0.25708296654489105
aa(lp633
F-0.33506043114620065
aF-0.11043151796478215
aF0.08911597126927263
aF-0.040991475852538
aF0.9882508181404851
aa(lp634
F-0.30028317447391006
aF-0.28017923474759676
aF0.16759022004356874
aF-0.12660937610360018
aF0.4353771838448833
aa(lp635
F0.6304900254479666
aF0.8206472642034297
aF-0.26201234341707647
aF0.9184082103277633
aF0.19031739048039487
aa(lp636
F-0.7578030500268935
aF-0.3564141187491984
aF-0.6863980617801682
aF-0.052305986731603145
aF-0.8476772183512125
aa(lp637
F-0.22608960159987226
aF0.7391661181191495
aF-0.7477683349621919
aF0.031352566910217705
aF0.2441355421940482
aa(lp638
F0.6634704795312064
aF0.920397334707937
aF0.1129644585060216
aF0.4535898469539765
aF0.2681984187400063
aa(lp639
F0.43465954496368314
aF-0.04443460918681701
aF0.2978528529490344
aF-0.14052135714774733
aF0.7018099481133607
aaa(lp640
(lp641
F0.9674898455617494
aF-0.950666415990008
aF-0.7162884372154863
aF0.22216410656034202
aa(lp642
F0.9972976130520318
aF-0.0664448999820555
aF-0.30329481803276104
aF0.0923192130790861
aa(lp643
F0.7821013939240752
aF-0.7692557841504156
aF-0.4492115394466522
aF-0.32777402598576894
aa(lp644
F0.30317125252399113
aF0.27272816274865613
aF-0.8314475030880114
aF1.041386174641385
aa(lp645
F0.06860732393341626
aF0.5902355618792213
aF0.6640385134863638
aF-0.4084463195638502
aaaF77.49999999999982
tp646
a((lp647
(lp648
(lp649
F0.06866547795327779
aF0.05667399027000134
aF0.5569537856578826
aF-0.9250857352721801
aF-0.25708296654489105
aa(lp650
F-0.25665315166897207
aF-0.11043151796478215
aF0.1665767897010385
aF-0.040991475852538
aF0.8311864428779787
aa(lp651
F-0.17386258296973392
aF-0.394529091077499
aF0.23937829363435018
aF-0.12660937610360018
aF0.4598045544879501
aa(lp652
F0.6276180244688228
aF0.7935889863430129
aF-0.15344727416926376
aF0.9184082103277633
aF0.23861451790443958
aa(lp653
F-0.728545314723576
aF-0.20434399581511378
aF-0.6696675880949834
aF-0.016388067410802884
aF-0.8476772183512125
aa(lp654
F-0.28020848703213763
aF0.7391661181191495
aF-0.8373650016675228
aF0.031352566910217705
aF0.2441355421940482
aa(lp655
F0.6243503757484972
aF0.8654456434462107
aF0.16642182863932056
aF0.4660118487580872
aF0.3492623727501942
aa(lp656
F0.4861668009411046
aF-0.04443460918681701
aF0.2978528529490344
aF-0.26685479464664247
aF0.6977407074378518
aaa(lp657
(lp658
F0.9230047639113808
aF-0.8925483966256016
aF-0.5535804771774334
aF0.288140054598376
aa(lp659
F1.0114223012103583
aF-0.09089066775658479
aF-0.21937763547786138
aF0.0923192130790861
aa(lp660
F0.7612247196472566
aF-0.586491887826991
aF-0.5460585979247842
aF-0.3770351216482559
aa(lp661
F0.2710816864814532
aF0.23675860497468962
aF-0.83794642409949
aF0.8930196242793216
aa(lp662
F0.06329286468927417
aF0.721874498056974
aF0.40171114616995424
aF-0.4084463195638502
aaaF77.49999999999982
tp663
a((lp664
(lp665
(lp666
F-0.0767400628516215
aF-0.010730093169177023
aF0.4746812298495242
aF-0.9033761502767591
aF-0.25708296654489105
aa(lp667
F-0.29021907994650975
aF-0.11043151796478215
aF0.08911597126927263
aF-0.040991475852538
aF0.9882508181404851
aa(lp668
F-0.2704556758573299
aF-0.2735405808703889
aF0.16759022004356874
aF-0.12660937610360018
aF0.4353771838448833
aa(lp669
F0.6282096277127088
aF0.762792026866201
aF-0.2506488436719596
aF0.9184082103277633
aF0.19031739048039487
aa(lp670
F-0.7578030500268935
aF-0.3564141187491984
aF-0.6863980617801682
aF-0.052305986731603145
aF-0.8476772183512125
aa(lp671
F-0.17209286028467807
aF0.7391661181191495
aF-0.7477683349621919
aF0.031352566910217705
aF0.2441355421940482
aa(lp672
F0.6634704795312064
aF0.920397334707937
aF0.1129644585060216
aF0.4535898469539765
aF0.2681984187400063
aa(lp673
F0.43465954496368314
aF-0.0471654241123741
aF0.2978528529490344
aF-0.14052135714774733
aF0.6248761916284887
aaa(lp674
(lp675
F0.9674898455617494
aF-0.950666415990008
aF-0.7162884372154863
aF0.22216410656034202
aa(lp676
F0.9972976130520318
aF-0.0664448999820555
aF-0.30329481803276104
aF0.0923192130790861
aa(lp677
F0.7821013939240752
aF-0.7692557841504156
aF-0.4492115394466522
aF-0.32777402598576894
aa(lp678
F0.30555651151731583
aF0.20901417031598116
aF-0.8314475030880114
aF1.0166746700823133
aa(lp679
F0.06860732393341626
aF0.6700592863121392
aF0.5759410263402275
aF-0.4084463195638502
aaaF77.49999999999982
tp680
a((lp681
(lp682
(lp683
F0.06866547795327779
aF0.05667399027000134
aF0.5569537856578826
aF-0.9250857352721801
aF-0.25708296654489105
aa(lp684
F-0.25665315166897207
aF-0.11043151796478215
aF0.2022648396370851
aF-0.040991475852538
aF0.7542114986518973
aa(lp685
F-0.17386258296973392
aF-0.37857775575901953
aF0.23937829363435018
aF-0.12660937610360018
aF0.4137266515712257
aa(lp686
F0.6276180244688228
aF0.8175033415513987
aF-0.15344727416926376
aF0.8463640230201952
aF0.23861451790443958
aa(lp687
F-0.728545314723576
aF-0.2959210653299112
aF-0.6696675880949834
aF-0.016388067410802884
aF-0.8476772183512125
aa(lp688
F-0.28020848703213763
aF0.7391661181191495
aF-0.8373650016675228
aF0.031352566910217705
aF0.2441355421940482
aa(lp689
F0.6243503757484972
aF0.9001531621461905
aF0.16642182863932056
aF0.4660118487580872
aF0.4073755532087496
aa(lp690
F0.3882858777093686
aF-0.04443460918681701
aF0.2978528529490344
aF-0.3420140039960344
aF0.6977407074378518
aaa(lp691
(lp692
F0.898076948796761
aF-0.950666415990008
aF-0.6432328786251311
aF0.288140054598376
aa(lp693
F1.0114223012103583
aF-0.09089066775658479
aF-0.21937763547786138
aF0.0923192130790861
aa(lp694
F0.7533482341459188
aF-0.6244157798219151
aF-0.5460585979247842
aF-0.3770351216482559
aa(lp695
F0.3216492271534129
aF0.23675860497468962
aF-0.83794642409949
aF0.9521720364929847
aa(lp696
F0.04148497003081503
aF0.6765410463854783
aF0.4745075300792204
aF-0.4084463195638502
aaaF77.49999999999982
tp697
a((lp698
(lp699
(lp700
F0.06866547795327779
aF0.05667399027000134
aF0.5569537856578826
aF-0.9250857352721801
aF-0.25708296654489105
aa(lp701
F-0.25665315166897207
aF-0.11043151796478215
aF0.1665767897010385
aF-0.040991475852538
aF0.8311864428779787
aa(lp702
F-0.17386258296973392
aF-0.37857775575901953
aF0.23937829363435018
aF-0.12660937610360018
aF0.4137266515712257
aa(lp703
F0.5286225442829411
aF0.8175033415513987
aF-0.15344727416926376
aF0.9184082103277633
aF0.23861451790443958
aa(lp704
F-0.728545314723576
aF-0.2577896691746666
aF-0.6696675880949834
aF-0.016388067410802884
aF-0.8476772183512125
aa(lp705
F-0.28020848703213763
aF0.7391661181191495
aF-0.8373650016675228
aF0.031352566910217705
aF0.1915194851832412
aa(lp706
F0.6243503757484972
aF0.9001531621461905
aF0.16642182863932056
aF0.4660118487580872
aF0.4073755532087496
aa(lp707
F0.4787822236226844
aF-0.04443460918681701
aF0.2978528529490344
aF-0.26685479464664247
aF0.6977407074378518
aaa(lp708
(lp709
F0.9230047639113808
aF-0.950666415990008
aF-0.6432328786251311
aF0.288140054598376
aa(lp710
F1.0114223012103583
aF-0.09089066775658479
aF-0.26687842575396414
aF0.0923192130790861
aa(lp711
F0.7612247196472566
aF-0.6244157798219151
aF-0.5460585979247842
aF-0.3770351216482559
aa(lp712
F0.3216492271534129
aF0.23675860497468962
aF-0.846782528127332
aF0.9521720364929847
aa(lp713
F0.04148497003081503
aF0.6765410463854783
aF0.4745075300792204
aF-0.4084463195638502
aaaF77.49999999999982
tp714
a((lp715
(lp716
(lp717
F0.06866547795327779
aF0.05667399027000134
aF0.5569537856578826
aF-0.8743583262742556
aF-0.25708296654489105
aa(lp718
F-0.3231428013163711
aF-0.11043151796478215
aF0.2637311297796592
aF-0.040991475852538
aF0.9106647185513694
aa(lp719
F-0.2675850378031022
aF-0.37651910317718257
aF0.1781734519798836
aF-0.029673151297906042
aF0.3737944711172656
aa(lp720
F0.6276180244688228
aF0.8382098995778509
aF-0.2485819743490894
aF0.9184082103277633
aF0.23861451790443958
aa(lp721
F-0.766567534249437
aF-0.3445704163232909
aF-0.6863980617801682
aF-0.016388067410802884
aF-0.8476772183512125
aa(lp722
F-0.32907205165613557
aF0.7391661181191495
aF-0.7632604787258707
aF-0.03360058573966118
aF0.2441355421940482
aa(lp723
F0.6634704795312064
aF0.9001531621461905
aF0.10790133636958318
aF0.311120288375002
aF0.3798918603838635
aa(lp724
F0.23808948499964905
aF-0.04443460918681701
aF0.29663434011838247
aF-0.26685479464664247
aF0.6348729513339212
aaa(lp725
(lp726
F0.9230047639113808
aF-0.950666415990008
aF-0.6432328786251311
aF0.288140054598376
aa(lp727
F1.0429761360640835
aF-0.05800993176229372
aF-0.21937763547786138
aF0.07285831746098767
aa(lp728
F0.7821013939240752
aF-0.6913655954165843
aF-0.5460585979247842
aF-0.3176824844763087
aa(lp729
F0.3685335624223302
aF0.33540807839747644
aF-0.7385225158323566
aF0.9521720364929847
aa(lp730
F0.04148497003081503
aF0.644638838696458
aF0.48562198686372265
aF-0.4084463195638502
aaaF77.49999999999982
tp731
a((lp732
(lp733
(lp734
F0.10508890324931601
aF0.14891285314932287
aF0.5569537856578826
aF-0.9250857352721801
aF-0.25708296654489105
aa(lp735
F-0.25665315166897207
aF-0.19241149317562048
aF0.14421545750750545
aF-0.07654092669648854
aF0.7470818810567716
aa(lp736
F-0.2675850378031022
aF-0.32463887018319754
aF0.15850586276532933
aF-0.18924928599060292
aF0.3737944711172656
aa(lp737
F0.6276180244688228
aF0.8382098995778509
aF-0.20248441220858315
aF0.9923874545174881
aF0.23861451790443958
aa(lp738
F-0.8966752918041022
aF-0.34517588454296877
aF-0.7673649874835818
aF-0.016388067410802884
aF-0.8476772183512125
aa(lp739
F-0.24470092301013802
aF0.7391661181191495
aF-0.7632604787258707
aF0.031352566910217705
aF0.2441355421940482
aa(lp740
F0.7151338046744625
aF0.9001531621461905
aF0.24142955866614588
aF0.37422749923907744
aF0.58747462940901
aa(lp741
F0.36227820572261493
aF-0.04443460918681701
aF0.3509488788558553
aF-0.3398879422957058
aF0.6815001215151595
aaa(lp742
(lp743
F0.9230047639113808
aF-0.950666415990008
aF-0.6339164871574794
aF0.38089978101303373
aa(lp744
F1.0114223012103583
aF-0.05800993176229372
aF-0.19346525773369477
aF0.18413704217615084
aa(lp745
F0.7543137385739073
aF-0.7692557841504156
aF-0.5460585979247842
aF-0.44238840099544474
aa(lp746
F0.3823578784535265
aF0.23675860497468962
aF-0.8052048931963315
aF0.9647617953800156
aa(lp747
F0.04148497003081503
aF0.650214288015702
aF0.5284654860227704
aF-0.4084463195638502
aaaF77.49999999999982
tp748
a((lp749
(lp750
(lp751
F0.06866547795327779
aF0.018279108449019643
aF0.5569537856578826
aF-0.8743583262742556
aF-0.25708296654489105
aa(lp752
F-0.3231428013163711
aF-0.11043151796478215
aF0.2637311297796592
aF-0.040991475852538
aF0.9106647185513694
aa(lp753
F-0.2675850378031022
aF-0.37651910317718257
aF0.1781734519798836
aF-0.029673151297906042
aF0.3230532521925796
aa(lp754
F0.5293886308253508
aF0.8852728559569448
aF-0.2485819743490894
aF0.9184082103277633
aF0.23861451790443958
aa(lp755
F-0.766567534249437
aF-0.3445704163232909
aF-0.628675338842714
aF-0.016388067410802884
aF-0.8476772183512125
aa(lp756
F-0.32907205165613557
aF0.7391661181191495
aF-0.7632604787258707
aF-0.03360058573966118
aF0.2441355421940482
aa(lp757
F0.6634704795312064
aF0.9001531621461905
aF0.10790133636958318
aF0.3712235349953868
aF0.3798918603838635
aa(lp758
F0.15361657937410836
aF-0.04443460918681701
aF0.29663434011838247
aF-0.23658455404828813
aF0.6348729513339212
aaa(lp759
(lp760
F0.859076136570989
aF-0.950666415990008
aF-0.6006832440745038
aF0.288140054598376
aa(lp761
F1.1079400331595264
aF0.01882773788473322
aF-0.21937763547786138
aF0.07285831746098767
aa(lp762
F0.7821013939240752
aF-0.7692557841504156
aF-0.5460585979247842
aF-0.4167037796681635
aa(lp763
F0.3685335624223302
aF0.33540807839747644
aF-0.7385225158323566
aF1.0480047939344872
aa(lp764
F0.04148497003081503
aF0.6765410463854783
aF0.48562198686372265
aF-0.4084463195638502
aaaF77.44999999999982
tp765
a((lp766
(lp767
(lp768
F0.06866547795327779
aF0.14891285314932287
aF0.5569537856578826
aF-0.9250857352721801
aF-0.25708296654489105
aa(lp769
F-0.25665315166897207
aF-0.11768899263553412
aF0.14421545750750545
aF-0.07585182919643135
aF0.7470818810567716
aa(lp770
F-0.2675850378031022
aF-0.37857775575901953
aF0.15850586276532933
aF-0.18924928599060292
aF0.3737944711172656
aa(lp771
F0.6276180244688228
aF0.8382098995778509
aF-0.15344727416926376
aF0.9923874545174881
aF0.23861451790443958
aa(lp772
F-0.8234431273980891
aF-0.2806884938575682
aF-0.7673649874835818
aF-0.016388067410802884
aF-0.9037029493266683
aa(lp773
F-0.24470092301013802
aF0.7391661181191495
aF-0.735454706521947
aF0.031352566910217705
aF0.2441355421940482
aa(lp774
F0.6634704795312064
aF0.9001531621461905
aF0.16642182863932056
aF0.37422749923907744
aF0.4764667494506285
aa(lp775
F0.2962312686096796
aF-0.1442405973656264
aF0.3509488788558553
aF-0.3658891755393186
aF0.6977407074378518
aaa(lp776
(lp777
F1.0225966478105286
aF-0.8997882620423614
aF-0.6432328786251311
aF0.38089978101303373
aa(lp778
F1.0114223012103583
aF-0.001395841128253146
aF-0.2159594165869636
aF0.07793578307910201
aa(lp779
F0.7626053820272212
aF-0.7692557841504156
aF-0.5460585979247842
aF-0.3293030081992179
aa(lp780
F0.3823578784535265
aF0.11596357904403018
aF-0.8052048931963315
aF0.9647617953800156
aa(lp781
F0.05551662619906791
aF0.6765410463854783
aF0.5284654860227704
aF-0.4084463195638502
aaaF77.44999999999982
tp782
a((lp783
(lp784
(lp785
F-0.0792498797370909
aF0.05667399027000134
aF0.5615546462227531
aF-0.9694334091513738
aF-0.2609596676032791
aa(lp786
F-0.25665315166897207
aF-0.15486722870460534
aF0.1385935622261581
aF-0.040991475852538
aF0.9245391405069612
aa(lp787
F-0.2675850378031022
aF-0.3466348571226135
aF0.23937829363435018
aF-0.10941179035597007
aF0.43781722413403223
aa(lp788
F0.6282096277127088
aF0.8397324860046375
aF-0.1987722036504201
aF0.9184082103277633
aF0.23244699161469445
aa(lp789
F-0.8439003228899857
aF-0.3871243304610397
aF-0.6863980617801682
aF-0.016388067410802884
aF-0.8476772183512125
aa(lp790
F-0.23796986645620008
aF0.7391661181191495
aF-0.8220346456482747
aF0.031352566910217705
aF0.22710044670626667
aa(lp791
F0.6634704795312064
aF0.8228197506278445
aF0.1129644585060216
aF0.4535898469539765
aF0.37769307919492107
aa(lp792
F0.3674866934043756
aF-0.04443460918681701
aF0.2978528529490344
aF-0.21248344017168036
aF0.6240369725115587
aaa(lp793
(lp794
F0.939764995673687
aF-0.8290912700611901
aF-0.8038549010467527
aF0.19806916370759384
aa(lp795
F1.0105088329653258
aF-0.0664448999820555
aF-0.3810829808101108
aF0.0923192130790861
aa(lp796
F0.7921688870329868
aF-0.8088312790090202
aF-0.5460585979247842
aF-0.26190299691149227
aa(lp797
F0.30317125252399113
aF0.23675860497468962
aF-0.8314475030880114
aF1.041386174641385
aa(lp798
F0.06860732393341626
aF0.5902355618792213
aF0.5759410263402275
aF-0.3465757497831634
aaaF77.44999999999982
tp799
a((lp800
(lp801
(lp802
F-0.07097752121836011
aF0.05667399027000134
aF0.5242357859550547
aF-0.9783095052501719
aF-0.2609596676032791
aa(lp803
F-0.25665315166897207
aF-0.19863683083843872
aF0.09237426408164807
aF-0.011800003148927665
aF1.0219545759123052
aa(lp804
F-0.2675850378031022
aF-0.2898032713308005
aF0.23937829363435018
aF-0.10941179035597007
aF0.4187330695311857
aa(lp805
F0.6805209136786887
aF0.8397324860046375
aF-0.1987722036504201
aF0.9728689295357845
aF0.23244699161469445
aa(lp806
F-0.766567534249437
aF-0.3564141187491984
aF-0.6863980617801682
aF-0.016388067410802884
aF-0.8476772183512125
aa(lp807
F-0.23796986645620008
aF0.7391661181191495
aF-0.8220346456482747
aF0.031352566910217705
aF0.2441355421940482
aa(lp808
F0.595528000589215
aF0.7659180866973058
aF0.1129644585060216
aF0.4535898469539765
aF0.47306913229569886
aa(lp809
F0.3674866934043756
aF-0.06407443241375171
aF0.2978528529490344
aF-0.1255038576258644
aF0.6240369725115587
aaa(lp810
(lp811
F0.939764995673687
aF-0.9235491167555828
aF-0.744880819460616
aF0.2570234172127023
aa(lp812
F1.0166036417602655
aF-0.08864406962782789
aF-0.28619612102672143
aF0.0923192130790861
aa(lp813
F0.7939535630749001
aF-0.7692557841504156
aF-0.5460585979247842
aF-0.255275992547486
aa(lp814
F0.37911711212876237
aF0.23675860497468962
aF-0.7915826870917105
aF1.041386174641385
aa(lp815
F0.06860732393341626
aF0.6529981796003912
aF0.5759410263402275
aF-0.34811604594637524
aaaF77.44999999999982
tp816
a((lp817
(lp818
(lp819
F0.10508890324931601
aF0.14891285314932287
aF0.5569537856578826
aF-0.9250857352721801
aF-0.25708296654489105
aa(lp820
F-0.25665315166897207
aF-0.19241149317562048
aF0.20765708598686083
aF-0.040991475852538
aF0.682145477999249
aa(lp821
F-0.2675850378031022
aF-0.32463887018319754
aF0.15850586276532933
aF-0.18924928599060292
aF0.3737944711172656
aa(lp822
F0.6276180244688228
aF0.8382098995778509
aF-0.20248441220858315
aF0.9923874545174881
aF0.2546784738283169
aa(lp823
F-0.9549368696644301
aF-0.34517588454296877
aF-0.7673649874835818
aF-0.016388067410802884
aF-0.8476772183512125
aa(lp824
F-0.24470092301013802
aF0.7391661181191495
aF-0.7632604787258707
aF0.031352566910217705
aF0.2441355421940482
aa(lp825
F0.7151338046744625
aF0.9001531621461905
aF0.24142955866614588
aF0.37422749923907744
aF0.58747462940901
aa(lp826
F0.36227820572261493
aF-0.1391089010806576
aF0.3509488788558553
aF-0.3658891755393186
aF0.6815001215151595
aaa(lp827
(lp828
F0.9230047639113808
aF-0.950666415990008
aF-0.6339164871574794
aF0.38089978101303373
aa(lp829
F1.0114223012103583
aF-0.05800993176229372
aF-0.2159594165869636
aF0.18413704217615084
aa(lp830
F0.7543137385739073
aF-0.7692557841504156
aF-0.5460585979247842
aF-0.44238840099544474
aa(lp831
F0.29681812444632855
aF0.23675860497468962
aF-0.8052048931963315
aF0.9647617953800156
aa(lp832
F0.04148497003081503
aF0.650214288015702
aF0.5284654860227704
aF-0.4084463195638502
aaaF77.44999999999982
tp833
a((lp834
(lp835
(lp836
F-0.0792498797370909
aF0.05667399027000134
aF0.4746812298495242
aF-0.9250857352721801
aF-0.25708296654489105
aa(lp837
F-0.34555046957692287
aF-0.11043151796478215
aF0.09237426408164807
aF-0.1394166803167256
aF0.9245391405069612
aa(lp838
F-0.2675850378031022
aF-0.37857775575901953
aF0.23937829363435018
aF-0.12660937610360018
aF0.3737944711172656
aa(lp839
F0.6282096277127088
aF0.8397324860046375
aF-0.22648927398845242
aF0.9184082103277633
aF0.23244699161469445
aa(lp840
F-0.766567534249437
aF-0.3564141187491984
aF-0.6863980617801682
aF-0.016388067410802884
aF-0.8476772183512125
aa(lp841
F-0.23796986645620008
aF0.8276913187754206
aF-0.7492679497626923
aF0.031352566910217705
aF0.2441355421940482
aa(lp842
F0.6634704795312064
aF0.920397334707937
aF0.1129644585060216
aF0.4535898469539765
aF0.37769307919492107
aa(lp843
F0.3674866934043756
aF-0.04443460918681701
aF0.2978528529490344
aF-0.21248344017168036
aF0.7018099481133607
aaa(lp844
(lp845
F0.939764995673687
aF-0.950666415990008
aF-0.7330019203203212
aF0.2570234172127023
aa(lp846
F0.9618363998343397
aF-0.0664448999820555
aF-0.30329481803276104
aF0.0923192130790861
aa(lp847
F0.7821013939240752
aF-0.7692557841504156
aF-0.5460585979247842
aF-0.32777402598576894
aa(lp848
F0.30317125252399113
aF0.23675860497468962
aF-0.8314475030880114
aF1.065599816275803
aa(lp849
F0.06860732393341626
aF0.5902355618792213
aF0.5759410263402275
aF-0.4084463195638502
aaaF77.3999999999998
tp850
a((lp851
(lp852
(lp853
F0.06866547795327779
aF0.018279108449019643
aF0.5569537856578826
aF-0.8743583262742556
aF-0.25708296654489105
aa(lp854
F-0.3231428013163711
aF-0.11043151796478215
aF0.2637311297796592
aF-0.040991475852538
aF0.9106647185513694
aa(lp855
F-0.2675850378031022
aF-0.37651910317718257
aF0.1781734519798836
aF-0.029673151297906042
aF0.3737944711172656
aa(lp856
F0.6276180244688228
aF0.8382098995778509
aF-0.2485819743490894
aF0.9184082103277633
aF0.23861451790443958
aa(lp857
F-0.766567534249437
aF-0.3445704163232909
aF-0.6863980617801682
aF-0.016388067410802884
aF-0.8476772183512125
aa(lp858
F-0.32907205165613557
aF0.7391661181191495
aF-0.7632604787258707
aF-0.03360058573966118
aF0.2441355421940482
aa(lp859
F0.6634704795312064
aF0.9001531621461905
aF0.10790133636958318
aF0.3712235349953868
aF0.3798918603838635
aa(lp860
F0.15361657937410836
aF-0.04443460918681701
aF0.29663434011838247
aF-0.26685479464664247
aF0.6348729513339212
aaa(lp861
(lp862
F0.859076136570989
aF-0.950666415990008
aF-0.6432328786251311
aF0.288140054598376
aa(lp863
F1.0429761360640835
aF-0.05800993176229372
aF-0.21937763547786138
aF0.07285831746098767
aa(lp864
F0.7821013939240752
aF-0.7692557841504156
aF-0.5460585979247842
aF-0.2942483427913996
aa(lp865
F0.3685335624223302
aF0.33540807839747644
aF-0.7385225158323566
aF0.9521720364929847
aa(lp866
F-0.011711368142501039
aF0.6765410463854783
aF0.48562198686372265
aF-0.4084463195638502
aaaF77.3999999999998
tp867
a((lp868
(lp869
(lp870
F0.10508890324931601
aF0.14891285314932287
aF0.5569537856578826
aF-0.9250857352721801
aF-0.1706212966702116
aa(lp871
F-0.25665315166897207
aF-0.19241149317562048
aF0.14421545750750545
aF-0.040991475852538
aF0.7470818810567716
aa(lp872
F-0.2675850378031022
aF-0.32463887018319754
aF0.15850586276532933
aF-0.18924928599060292
aF0.3737944711172656
aa(lp873
F0.6276180244688228
aF0.8382098995778509
aF-0.10786231756938386
aF0.9923874545174881
aF0.23861451790443958
aa(lp874
F-0.8966752918041022
aF-0.3048170901173369
aF-0.7673649874835818
aF-0.016388067410802884
aF-0.8476772183512125
aa(lp875
F-0.24470092301013802
aF0.7391661181191495
aF-0.7093729704789168
aF0.031352566910217705
aF0.2441355421940482
aa(lp876
F0.7151338046744625
aF0.9001531621461905
aF0.24142955866614588
aF0.37422749923907744
aF0.58747462940901
aa(lp877
F0.36227820572261493
aF-0.04443460918681701
aF0.3509488788558553
aF-0.3064510758966781
aF0.6815001215151595
aaa(lp878
(lp879
F0.9230047639113808
aF-0.950666415990008
aF-0.6339164871574794
aF0.38614892168646836
aa(lp880
F1.0114223012103583
aF-0.05800993176229372
aF-0.2159594165869636
aF0.18413704217615084
aa(lp881
F0.7783380145086506
aF-0.7692557841504156
aF-0.5460585979247842
aF-0.44238840099544474
aa(lp882
F0.3823578784535265
aF0.23675860497468962
aF-0.8052048931963315
aF0.9647617953800156
aa(lp883
F0.04148497003081503
aF0.650214288015702
aF0.43492062667972686
aF-0.4084463195638502
aaaF77.3999999999998
tp884
a((lp885
(lp886
(lp887
F0.10508890324931601
aF0.14891285314932287
aF0.5569537856578826
aF-0.9250857352721801
aF-0.25708296654489105
aa(lp888
F-0.25665315166897207
aF-0.19241149317562048
aF0.14421545750750545
aF-0.040991475852538
aF0.7470818810567716
aa(lp889
F-0.2675850378031022
aF-0.32463887018319754
aF0.15850586276532933
aF-0.18924928599060292
aF0.3737944711172656
aa(lp890
F0.6276180244688228
aF0.8382098995778509
aF-0.20248441220858315
aF0.9923874545174881
aF0.15829874845259778
aa(lp891
F-0.8161348439144809
aF-0.34517588454296877
aF-0.7673649874835818
aF-0.016388067410802884
aF-0.8476772183512125
aa(lp892
F-0.24470092301013802
aF0.7391661181191495
aF-0.7632604787258707
aF0.031352566910217705
aF0.2441355421940482
aa(lp893
F0.7151338046744625
aF0.9001531621461905
aF0.24142955866614588
aF0.37422749923907744
aF0.58747462940901
aa(lp894
F0.294548293190543
aF0.048525585184560203
aF0.3509488788558553
aF-0.3658891755393186
aF0.6815001215151595
aaa(lp895
(lp896
F0.9230047639113808
aF-0.950666415990008
aF-0.6339164871574794
aF0.38089978101303373
aa(lp897
F0.9859060476871205
aF-0.05800993176229372
aF-0.2159594165869636
aF0.18413704217615084
aa(lp898
F0.7543137385739073
aF-0.7692557841504156
aF-0.5460585979247842
aF-0.44238840099544474
aa(lp899
F0.3823578784535265
aF0.23675860497468962
aF-0.8052048931963315
aF1.005745473945319
aa(lp900
F0.04148497003081503
aF0.650214288015702
aF0.5284654860227704
aF-0.4084463195638502
aaaF77.3999999999998
tp901
a((lp902
(lp903
(lp904
F-0.0792498797370909
aF0.05667399027000134
aF0.5615546462227531
aF-0.9694334091513738
aF-0.2609596676032791
aa(lp905
F-0.25665315166897207
aF-0.15486722870460534
aF0.1385935622261581
aF-0.040991475852538
aF0.9245391405069612
aa(lp906
F-0.2675850378031022
aF-0.3466348571226135
aF0.23937829363435018
aF-0.10941179035597007
aF0.3737944711172656
aa(lp907
F0.6282096277127088
aF0.8397324860046375
aF-0.1987722036504201
aF0.9184082103277633
aF0.15044516509871103
aa(lp908
F-0.8439003228899857
aF-0.2612698472233317
aF-0.6863980617801682
aF-0.016388067410802884
aF-0.8476772183512125
aa(lp909
F-0.23796986645620008
aF0.7391661181191495
aF-0.8220346456482747
aF0.031352566910217705
aF0.2814248758930445
aa(lp910
F0.6634704795312064
aF0.8228197506278445
aF0.1129644585060216
aF0.4535898469539765
aF0.37769307919492107
aa(lp911
F0.3674866934043756
aF-0.058659497877241104
aF0.2978528529490344
aF-0.21248344017168036
aF0.6240369725115587
aaa(lp912
(lp913
F0.9169990439431346
aF-0.8290912700611901
aF-0.8038549010467527
aF0.19806916370759384
aa(lp914
F1.0105088329653258
aF-0.0664448999820555
aF-0.35449535771656926
aF0.0923192130790861
aa(lp915
F0.8313340634360785
aF-0.8088312790090202
aF-0.5460585979247842
aF-0.26190299691149227
aa(lp916
F0.30317125252399113
aF0.23675860497468962
aF-0.8314475030880114
aF1.041386174641385
aa(lp917
F0.06860732393341626
aF0.5902355618792213
aF0.5759410263402275
aF-0.3465757497831634
aaaF77.34999999999981
tp918
a((lp919
(lp920
(lp921
F-0.0767400628516215
aF0.05667399027000134
aF0.4746812298495242
aF-0.9250857352721801
aF-0.25708296654489105
aa(lp922
F-0.25665315166897207
aF-0.11043151796478215
aF0.09237426408164807
aF-0.10004042885410569
aF0.9245391405069612
aa(lp923
F-0.2675850378031022
aF-0.2851106708557983
aF0.23937829363435018
aF-0.12660937610360018
aF0.4353771838448833
aa(lp924
F0.6282096277127088
aF0.8752525876290388
aF-0.26201234341707647
aF0.9184082103277633
aF0.23244699161469445
aa(lp925
F-0.766567534249437
aF-0.3564141187491984
aF-0.6863980617801682
aF-0.016388067410802884
aF-0.8476772183512125
aa(lp926
F-0.22608960159987226
aF0.7841092459524288
aF-0.749188171949457
aF0.031352566910217705
aF0.2441355421940482
aa(lp927
F0.6634704795312064
aF0.920397334707937
aF0.1129644585060216
aF0.4535898469539765
aF0.3398231345087223
aa(lp928
F0.354948222506575
aF-0.04443460918681701
aF0.2978528529490344
aF-0.14052135714774733
aF0.6971790962105545
aaa(lp929
(lp930
F0.939764995673687
aF-0.9698909134725139
aF-0.7162884372154863
aF0.2570234172127023
aa(lp931
F0.9972976130520318
aF-0.0664448999820555
aF-0.30329481803276104
aF0.0923192130790861
aa(lp932
F0.7821013939240752
aF-0.7952058396420335
aF-0.4492115394466522
aF-0.32777402598576894
aa(lp933
F0.30317125252399113
aF0.23675860497468962
aF-0.8314475030880114
aF1.1063966184896954
aa(lp934
F0.08619454588807704
aF0.5902355618792213
aF0.5759410263402275
aF-0.4548382472583222
aaaF77.34999999999981
tp935
a((lp936
(lp937
(lp938
F0.06866547795327779
aF0.05667399027000134
aF0.5569537856578826
aF-0.8743583262742556
aF-0.25708296654489105
aa(lp939
F-0.3231428013163711
aF-0.11043151796478215
aF0.23797117131313952
aF-0.040991475852538
aF0.9133604580307442
aa(lp940
F-0.2675850378031022
aF-0.37651910317718257
aF0.26055366400456836
aF-0.029673151297906042
aF0.3737944711172656
aa(lp941
F0.6276180244688228
aF0.8382098995778509
aF-0.2485819743490894
aF0.9184082103277633
aF0.2945384451236197
aa(lp942
F-0.766567534249437
aF-0.3445704163232909
aF-0.6863980617801682
aF-0.016388067410802884
aF-0.8476772183512125
aa(lp943
F-0.32907205165613557
aF0.7391661181191495
aF-0.7632604787258707
aF-0.03360058573966118
aF0.2441355421940482
aa(lp944
F0.6634704795312064
aF0.9119092172531224
aF0.10790133636958318
aF0.3316085408782976
aF0.3798918603838635
aa(lp945
F0.23808948499964905
aF-0.04443460918681701
aF0.3334536451532137
aF-0.26685479464664247
aF0.6348729513339212
aaa(lp946
(lp947
F0.9230047639113808
aF-0.950666415990008
aF-0.6432328786251311
aF0.288140054598376
aa(lp948
F1.0429761360640835
aF-0.05800993176229372
aF-0.2693219476483001
aF0.1624379251499887
aa(lp949
F0.7821013939240752
aF-0.7692557841504156
aF-0.5460585979247842
aF-0.3770351216482559
aa(lp950
F0.3685335624223302
aF0.23967719912821955
aF-0.7385225158323566
aF0.9515307901970003
aa(lp951
F0.04148497003081503
aF0.6765410463854783
aF0.48562198686372265
aF-0.4084463195638502
aaaF77.34999999999981
tp952
a((lp953
(lp954
(lp955
F-0.0792498797370909
aF0.05667399027000134
aF0.4746812298495242
aF-0.9250857352721801
aF-0.2871562124153815
aa(lp956
F-0.3262970388933897
aF-0.11043151796478215
aF0.09237426408164807
aF-0.040991475852538
aF0.9245391405069612
aa(lp957
F-0.25941998721339093
aF-0.37857775575901953
aF0.23937829363435018
aF-0.12660937610360018
aF0.3737944711172656
aa(lp958
F0.6282096277127088
aF0.8397324860046375
aF-0.22648927398845242
aF0.9184082103277633
aF0.23244699161469445
aa(lp959
F-0.8465484356439412
aF-0.3564141187491984
aF-0.6863980617801682
aF-0.016388067410802884
aF-0.8476772183512125
aa(lp960
F-0.23796986645620008
aF0.7391661181191495
aF-0.8220346456482747
aF0.031352566910217705
aF0.2939567752039865
aa(lp961
F0.6634704795312064
aF0.9817749096621387
aF0.1129644585060216
aF0.4535898469539765
aF0.37769307919492107
aa(lp962
F0.3674866934043756
aF-0.04443460918681701
aF0.2978528529490344
aF-0.2814479967471515
aF0.7018099481133607
aaa(lp963
(lp964
F0.939764995673687
aF-0.950666415990008
aF-0.7162884372154863
aF0.19456244779138962
aa(lp965
F0.9483903623556873
aF-0.0664448999820555
aF-0.3946098587659656
aF0.011844918815553815
aa(lp966
F0.7821013939240752
aF-0.7692557841504156
aF-0.5460585979247842
aF-0.32777402598576894
aa(lp967
F0.30317125252399113
aF0.23675860497468962
aF-0.8314475030880114
aF1.041386174641385
aa(lp968
F0.06860732393341626
aF0.5902355618792213
aF0.5759410263402275
aF-0.4084463195638502
aaaF77.34999999999981
tp969
a((lp970
(lp971
(lp972
F-0.0792498797370909
aF0.05667399027000134
aF0.5242357859550547
aF-0.9783095052501719
aF-0.2609596676032791
aa(lp973
F-0.25665315166897207
aF-0.19863683083843872
aF0.09237426408164807
aF-0.011800003148927665
aF0.9245391405069612
aa(lp974
F-0.289771268340621
aF-0.2898032713308005
aF0.23937829363435018
aF-0.10941179035597007
aF0.4187330695311857
aa(lp975
F0.6805209136786887
aF0.7690668750486688
aF-0.1987722036504201
aF0.9728689295357845
aF0.2929994350112184
aa(lp976
F-0.766567534249437
aF-0.3564141187491984
aF-0.6863980617801682
aF-0.016388067410802884
aF-0.8476772183512125
aa(lp977
F-0.23796986645620008
aF0.6711739787383347
aF-0.8220346456482747
aF0.031352566910217705
aF0.2441355421940482
aa(lp978
F0.595528000589215
aF0.7659180866973058
aF0.1129644585060216
aF0.4535898469539765
aF0.37769307919492107
aa(lp979
F0.3674866934043756
aF-0.15028270941110639
aF0.2978528529490344
aF-0.1255038576258644
aF0.7040548921387639
aaa(lp980
(lp981
F0.939764995673687
aF-0.9235491167555828
aF-0.744880819460616
aF0.2948672200980801
aa(lp982
F0.9740319107779417
aF-0.08864406962782789
aF-0.28619612102672143
aF0.0923192130790861
aa(lp983
F0.7939535630749001
aF-0.7692557841504156
aF-0.5460585979247842
aF-0.255275992547486
aa(lp984
F0.37911711212876237
aF0.23675860497468962
aF-0.7601683797886787
aF1.041386174641385
aa(lp985
F0.1104401735274386
aF0.6529981796003912
aF0.5759410263402275
aF-0.24915167043220426
aaaF77.29999999999981
tp986
a((lp987
(lp988
(lp989
F0.10508890324931601
aF0.14891285314932287
aF0.5569537856578826
aF-0.9250857352721801
aF-0.25708296654489105
aa(lp990
F-0.25665315166897207
aF-0.19241149317562048
aF0.14421545750750545
aF-0.040991475852538
aF0.7470818810567716
aa(lp991
F-0.2675850378031022
aF-0.41623518348290633
aF0.11522503739326091
aF-0.18924928599060292
aF0.3737944711172656
aa(lp992
F0.6276180244688228
aF0.8382098995778509
aF-0.20248441220858315
aF0.9923874545174881
aF0.23861451790443958
aa(lp993
F-0.8966752918041022
aF-0.34517588454296877
aF-0.7673649874835818
aF-0.016388067410802884
aF-0.8476772183512125
aa(lp994
F-0.30891801449525985
aF0.7391661181191495
aF-0.7632604787258707
aF0.031352566910217705
aF0.2441355421940482
aa(lp995
F0.7151338046744625
aF0.9001531621461905
aF0.24142955866614588
aF0.37422749923907744
aF0.58747462940901
aa(lp996
F0.3701196790588124
aF-0.04443460918681701
aF0.3509488788558553
aF-0.3658891755393186
aF0.6706233779856104
aaa(lp997
(lp998
F0.9230047639113808
aF-0.950666415990008
aF-0.6339164871574794
aF0.38089978101303373
aa(lp999
F1.0114223012103583
aF-0.05800993176229372
aF-0.285550051791304
aF0.18413704217615084
aa(lp1000
F0.7543137385739073
aF-0.7692557841504156
aF-0.5460585979247842
aF-0.44238840099544474
aa(lp1001
F0.3823578784535265
aF0.23675860497468962
aF-0.8052048931963315
aF0.9647617953800156
aa(lp1002
F0.04148497003081503
aF0.650214288015702
aF0.5284654860227704
aF-0.4084463195638502
aaaF77.29999999999981
tp1003
a((lp1004
(lp1005
(lp1006
F0.10508890324931601
aF0.14891285314932287
aF0.5569537856578826
aF-0.9250857352721801
aF-0.24328907627079635
aa(lp1007
F-0.25665315166897207
aF-0.19241149317562048
aF0.14421545750750545
aF-0.040991475852538
aF0.7378056315254455
aa(lp1008
F-0.2675850378031022
aF-0.32463887018319754
aF0.15850586276532933
aF-0.18924928599060292
aF0.3737944711172656
aa(lp1009
F0.6276180244688228
aF0.8382098995778509
aF-0.20248441220858315
aF0.9923874545174881
aF0.23861451790443958
aa(lp1010
F-0.8966752918041022
aF-0.34517588454296877
aF-0.7673649874835818
aF-0.016388067410802884
aF-0.8476772183512125
aa(lp1011
F-0.24470092301013802
aF0.7391661181191495
aF-0.7632604787258707
aF0.031352566910217705
aF0.2441355421940482
aa(lp1012
F0.7151338046744625
aF0.9001531621461905
aF0.24142955866614588
aF0.37422749923907744
aF0.58747462940901
aa(lp1013
F0.36227820572261493
aF-0.04443460918681701
aF0.3509488788558553
aF-0.3658891755393186
aF0.7139458615039116
aaa(lp1014
(lp1015
F0.9230047639113808
aF-0.950666415990008
aF-0.6339164871574794
aF0.38089978101303373
aa(lp1016
F1.0114223012103583
aF0.03518095331000191
aF-0.22617096490616276
aF0.18413704217615084
aa(lp1017
F0.7543137385739073
aF-0.7692557841504156
aF-0.5460585979247842
aF-0.44238840099544474
aa(lp1018
F0.3823578784535265
aF0.23675860497468962
aF-0.8052048931963315
aF0.9647617953800156
aa(lp1019
F0.10803508396678156
aF0.650214288015702
aF0.5284654860227704
aF-0.4084463195638502
aaaF77.24999999999982
tp1020
a((lp1021
(lp1022
(lp1023
F0.06866547795327779
aF0.14891285314932287
aF0.5569537856578826
aF-0.9250857352721801
aF-0.25708296654489105
aa(lp1024
F-0.25665315166897207
aF-0.11768899263553412
aF0.13125895273961405
aF0.022835724458905665
aF0.7470818810567716
aa(lp1025
F-0.2675850378031022
aF-0.37857775575901953
aF0.15850586276532933
aF-0.18924928599060292
aF0.3737944711172656
aa(lp1026
F0.5610331989200457
aF0.8382098995778509
aF-0.15344727416926376
aF0.9923874545174881
aF0.23861451790443958
aa(lp1027
F-0.8234431273980891
aF-0.2806884938575682
aF-0.7673649874835818
aF0.037379838965792195
aF-0.8476772183512125
aa(lp1028
F-0.24470092301013802
aF0.7391661181191495
aF-0.735454706521947
aF0.031352566910217705
aF0.16189056337712524
aa(lp1029
F0.6634704795312064
aF0.9001531621461905
aF0.16642182863932056
aF0.37422749923907744
aF0.4764667494506285
aa(lp1030
F0.2962312686096796
aF-0.1442405973656264
aF0.3509488788558553
aF-0.3658891755393186
aF0.6977407074378518
aaa(lp1031
(lp1032
F1.0225966478105286
aF-0.8997882620423614
aF-0.6432328786251311
aF0.38089978101303373
aa(lp1033
F1.0114223012103583
aF-0.05800993176229372
aF-0.16496454122093368
aF0.07793578307910201
aa(lp1034
F0.7626053820272212
aF-0.7692557841504156
aF-0.5460585979247842
aF-0.3770351216482559
aa(lp1035
F0.3823578784535265
aF0.16529433336240684
aF-0.8052048931963315
aF0.9647617953800156
aa(lp1036
F0.016310959281874038
aF0.6765410463854783
aF0.5284654860227704
aF-0.4084463195638502
aaaF77.24999999999982
tp1037
a((lp1038
(lp1039
(lp1040
F0.10508890324931601
aF0.14891285314932287
aF0.5569537856578826
aF-0.9331596138995945
aF-0.25708296654489105
aa(lp1041
F-0.25665315166897207
aF-0.11043151796478215
aF0.14421545750750545
aF-0.040991475852538
aF0.7470818810567716
aa(lp1042
F-0.2675850378031022
aF-0.37857775575901953
aF0.15850586276532933
aF-0.18924928599060292
aF0.3737944711172656
aa(lp1043
F0.6276180244688228
aF0.8382098995778509
aF-0.15344727416926376
aF1.0387014040149989
aF0.28867654214320393
aa(lp1044
F-0.8234431273980891
aF-0.2924324382414726
aF-0.7673649874835818
aF-0.016388067410802884
aF-0.8476772183512125
aa(lp1045
F-0.3241039652177939
aF0.7391661181191495
aF-0.7632604787258707
aF0.031352566910217705
aF0.17273927822772117
aa(lp1046
F0.569811869625361
aF0.9001531621461905
aF0.16642182863932056
aF0.37422749923907744
aF0.5378616242846708
aa(lp1047
F0.36227820572261493
aF-0.04443460918681701
aF0.2731393759709526
aF-0.3658891755393186
aF0.6977407074378518
aaa(lp1048
(lp1049
F0.9230047639113808
aF-0.950666415990008
aF-0.5897695354923257
aF0.38089978101303373
aa(lp1050
F1.0114223012103583
aF-0.05800993176229372
aF-0.2159594165869636
aF0.0923192130790861
aa(lp1051
F0.6638454900744278
aF-0.7692557841504156
aF-0.6182401137572132
aF-0.3770351216482559
aa(lp1052
F0.3823578784535265
aF0.2717191463745009
aF-0.8185735173772465
aF0.9647617953800156
aa(lp1053
F-0.04782205773791859
aF0.650214288015702
aF0.4374118412899811
aF-0.4084463195638502
aaaF77.19999999999982
tp1054
a((lp1055
(lp1056
(lp1057
F0.06866547795327779
aF0.05667399027000134
aF0.5569537856578826
aF-0.8743583262742556
aF-0.25708296654489105
aa(lp1058
F-0.25665315166897207
aF-0.11043151796478215
aF0.1665767897010385
aF-0.040991475852538
aF0.9106647185513694
aa(lp1059
F-0.30761041551097856
aF-0.37651910317718257
aF0.1781734519798836
aF-0.029673151297906042
aF0.3737944711172656
aa(lp1060
F0.5666359201245912
aF0.8382098995778509
aF-0.15344727416926376
aF0.9184082103277633
aF0.23861451790443958
aa(lp1061
F-0.766567534249437
aF-0.3445704163232909
aF-0.6863980617801682
aF-0.016388067410802884
aF-0.8476772183512125
aa(lp1062
F-0.24470092301013802
aF0.7391661181191495
aF-0.7632604787258707
aF-0.03360058573966118
aF0.2908115525650476
aa(lp1063
F0.6634704795312064
aF0.9001531621461905
aF0.10790133636958318
aF0.3712235349953868
aF0.37769307919492107
aa(lp1064
F0.23808948499964905
aF-0.037902025160637676
aF0.3457008204516657
aF-0.26685479464664247
aF0.6998457985697205
aaa(lp1065
(lp1066
F0.9230047639113808
aF-0.9467289917230756
aF-0.6432328786251311
aF0.288140054598376
aa(lp1067
F1.0122241301934896
aF-0.05800993176229372
aF-0.21937763547786138
aF0.0923192130790861
aa(lp1068
F0.7821013939240752
aF-0.8643334053090399
aF-0.5460585979247842
aF-0.3770351216482559
aa(lp1069
F0.34438388134397513
aF0.33540807839747644
aF-0.8317786224172905
aF0.9521720364929847
aa(lp1070
F0.04148497003081503
aF0.6765410463854783
aF0.48562198686372265
aF-0.4084463195638502
aaaF77.19999999999982
tp1071
a((lp1072
(lp1073
(lp1074
F0.06866547795327779
aF0.05667399027000134
aF0.5569537856578826
aF-0.9250857352721801
aF-0.16667949119779857
aa(lp1075
F-0.25665315166897207
aF-0.11043151796478215
aF0.1665767897010385
aF-0.10560966366303892
aF0.8301770773064169
aa(lp1076
F-0.17386258296973392
aF-0.37857775575901953
aF0.23937829363435018
aF-0.12660937610360018
aF0.4137266515712257
aa(lp1077
F0.5867255176759102
aF0.8175033415513987
aF-0.15344727416926376
aF0.9184082103277633
aF0.23861451790443958
aa(lp1078
F-0.728545314723576
aF-0.2864661032239366
aF-0.6696675880949834
aF-0.016388067410802884
aF-0.8476772183512125
aa(lp1079
F-0.22932419490329442
aF0.7391661181191495
aF-0.8373650016675228
aF0.031352566910217705
aF0.2441355421940482
aa(lp1080
F0.6243503757484972
aF0.9001531621461905
aF0.16642182863932056
aF0.4660118487580872
aF0.4073755532087496
aa(lp1081
F0.3882858777093686
aF-0.04443460918681701
aF0.2978528529490344
aF-0.26685479464664247
aF0.6977407074378518
aaa(lp1082
(lp1083
F0.9230047639113808
aF-0.950666415990008
aF-0.6432328786251311
aF0.288140054598376
aa(lp1084
F1.0114223012103583
aF-0.09089066775658479
aF-0.21937763547786138
aF0.0923192130790861
aa(lp1085
F0.7612247196472566
aF-0.6244157798219151
aF-0.5460585979247842
aF-0.3770351216482559
aa(lp1086
F0.3216492271534129
aF0.23675860497468962
aF-0.83794642409949
aF0.9521720364929847
aa(lp1087
F0.04148497003081503
aF0.6765410463854783
aF0.4745075300792204
aF-0.4084463195638502
aaaF77.19999999999982
tp1088
a((lp1089
(lp1090
(lp1091
F-0.0792498797370909
aF0.05667399027000134
aF0.5615546462227531
aF-0.9694334091513738
aF-0.2609596676032791
aa(lp1092
F-0.25665315166897207
aF-0.15486722870460534
aF0.1385935622261581
aF-0.040991475852538
aF0.9245391405069612
aa(lp1093
F-0.2675850378031022
aF-0.3466348571226135
aF0.23937829363435018
aF-0.10941179035597007
aF0.3737944711172656
aa(lp1094
F0.6282096277127088
aF0.8397324860046375
aF-0.1987722036504201
aF0.9184082103277633
aF0.23244699161469445
aa(lp1095
F-0.8439003228899857
aF-0.3564141187491984
aF-0.6863980617801682
aF-0.07915728314071341
aF-0.8476772183512125
aa(lp1096
F-0.23796986645620008
aF0.7391661181191495
aF-0.8220346456482747
aF0.031352566910217705
aF0.229118166637004
aa(lp1097
F0.6634704795312064
aF0.8228197506278445
aF0.1129644585060216
aF0.4535898469539765
aF0.37769307919492107
aa(lp1098
F0.3674866934043756
aF-0.04443460918681701
aF0.2978528529490344
aF-0.21248344017168036
aF0.6240369725115587
aaa(lp1099
(lp1100
F0.939764995673687
aF-0.8781905186756452
aF-0.8038549010467527
aF0.19806916370759384
aa(lp1101
F1.0105088329653258
aF-0.0664448999820555
aF-0.3810829808101108
aF0.0923192130790861
aa(lp1102
F0.8313340634360785
aF-0.8088312790090202
aF-0.5460585979247842
aF-0.26190299691149227
aa(lp1103
F0.30317125252399113
aF0.23675860497468962
aF-0.8314475030880114
aF1.041386174641385
aa(lp1104
F0.06860732393341626
aF0.5902355618792213
aF0.5590039251392798
aF-0.3465757497831634
aaaF77.1499999999998
tp1105
a((lp1106
(lp1107
(lp1108
F-0.10976456662935088
aF0.05667399027000134
aF0.4746812298495242
aF-0.9250857352721801
aF-0.25708296654489105
aa(lp1109
F-0.25665315166897207
aF-0.11043151796478215
aF0.09130549200380499
aF-0.11327204593448902
aF0.8921443493663638
aa(lp1110
F-0.2675850378031022
aF-0.37857775575901953
aF0.23937829363435018
aF-0.12660937610360018
aF0.31551064830786857
aa(lp1111
F0.6282096277127088
aF0.8397324860046375
aF-0.22648927398845242
aF0.9184082103277633
aF0.23244699161469445
aa(lp1112
F-0.766567534249437
aF-0.3564141187491984
aF-0.6863980617801682
aF-0.016388067410802884
aF-0.8476772183512125
aa(lp1113
F-0.26168964923915455
aF0.7391661181191495
aF-0.895803431220544
aF0.031352566910217705
aF0.2441355421940482
aa(lp1114
F0.6634704795312064
aF0.920397334707937
aF0.1941437031831282
aF0.4535898469539765
aF0.37769307919492107
aa(lp1115
F0.32026057087388293
aF-0.04443460918681701
aF0.2643091183330415
aF-0.21248344017168036
aF0.7018099481133607
aaa(lp1116
(lp1117
F0.939764995673687
aF-0.950666415990008
aF-0.7162884372154863
aF0.2570234172127023
aa(lp1118
F0.9410588642178702
aF-0.0664448999820555
aF-0.30329481803276104
aF0.0923192130790861
aa(lp1119
F0.7049457868505271
aF-0.7692557841504156
aF-0.5460585979247842
aF-0.32777402598576894
aa(lp1120
F0.2846335104701876
aF0.23675860497468962
aF-0.8314475030880114
aF1.041386174641385
aa(lp1121
F0.06860732393341626
aF0.5902355618792213
aF0.5562389743254291
aF-0.4084463195638502
aaaF77.09999999999981
tp1122
a((lp1123
(lp1124
(lp1125
F0.10508890324931601
aF0.14891285314932287
aF0.5569537856578826
aF-0.9250857352721801
aF-0.25708296654489105
aa(lp1126
F-0.25665315166897207
aF-0.19241149317562048
aF0.14421545750750545
aF-0.040991475852538
aF0.7470818810567716
aa(lp1127
F-0.2675850378031022
aF-0.32463887018319754
aF0.15850586276532933
aF-0.18924928599060292
aF0.3737944711172656
aa(lp1128
F0.6276180244688228
aF0.8382098995778509
aF-0.20248441220858315
aF0.9923874545174881
aF0.23861451790443958
aa(lp1129
F-0.8966752918041022
aF-0.34517588454296877
aF-0.7673649874835818
aF-0.016388067410802884
aF-0.8476772183512125
aa(lp1130
F-0.24470092301013802
aF0.7391661181191495
aF-0.7632604787258707
aF0.031352566910217705
aF0.2441355421940482
aa(lp1131
F0.7151338046744625
aF0.9001531621461905
aF0.24142955866614588
aF0.37422749923907744
aF0.58747462940901
aa(lp1132
F0.36227820572261493
aF-0.04443460918681701
aF0.42828494027710323
aF-0.3658891755393186
aF0.6815001215151595
aaa(lp1133
(lp1134
F0.9230047639113808
aF-0.950666415990008
aF-0.7195890828438444
aF0.4777721023244186
aa(lp1135
F1.0114223012103583
aF0.0023163852943840074
aF-0.2159594165869636
aF0.18413704217615084
aa(lp1136
F0.7543137385739073
aF-0.7692557841504156
aF-0.5460585979247842
aF-0.44238840099544474
aa(lp1137
F0.3823578784535265
aF0.23675860497468962
aF-0.8052048931963315
aF0.9647617953800156
aa(lp1138
F0.04148497003081503
aF0.650214288015702
aF0.5284654860227704
aF-0.4084463195638502
aaaF77.09999999999981
tp1139
a((lp1140
(lp1141
(lp1142
F-0.09851368395637605
aF0.14712480423810634
aF0.5242357859550547
aF-0.9250857352721801
aF-0.2609596676032791
aa(lp1143
F-0.25665315166897207
aF-0.1345726598022994
aF0.09237426408164807
aF-0.0752439411702252
aF0.9252955880870812
aa(lp1144
F-0.23553707603941676
aF-0.3634859962004369
aF0.23937829363435018
aF-0.06189051792917036
aF0.3737944711172656
aa(lp1145
F0.6282096277127088
aF0.9325280780485139
aF-0.1987722036504201
aF0.9184082103277633
aF0.23244699161469445
aa(lp1146
F-0.7013187721365788
aF-0.3564141187491984
aF-0.6863980617801682
aF-0.07535460189285109
aF-0.8476772183512125
aa(lp1147
F-0.23796986645620008
aF0.7391661181191495
aF-0.9215730142850833
aF0.031352566910217705
aF0.3041320735658809
aa(lp1148
F0.6436333022905671
aF0.920397334707937
aF0.1129644585060216
aF0.4535898469539765
aF0.37769307919492107
aa(lp1149
F0.3674866934043756
aF-0.04443460918681701
aF0.2978528529490344
aF-0.10497706068014756
aF0.682908326345628
aaa(lp1150
(lp1151
F1.0001166655907423
aF-0.950666415990008
aF-0.7162884372154863
aF0.2570234172127023
aa(lp1152
F1.0105088329653258
aF-0.0664448999820555
aF-0.30329481803276104
aF0.0923192130790861
aa(lp1153
F0.8313340634360785
aF-0.7692557841504156
aF-0.5460585979247842
aF-0.32777402598576894
aa(lp1154
F0.30317125252399113
aF0.23675860497468962
aF-0.8314475030880114
aF1.041386174641385
aa(lp1155
F0.07226425728520615
aF0.6674260255392052
aF0.5759410263402275
aF-0.4084463195638502
aaaF77.09999999999981
tp1156
a((lp1157
(lp1158
(lp1159
F-0.0767400628516215
aF-0.010730093169177023
aF0.4746812298495242
aF-0.9250857352721801
aF-0.25708296654489105
aa(lp1160
F-0.29021907994650975
aF-0.11043151796478215
aF0.10336073555023785
aF-0.040991475852538
aF0.9882508181404851
aa(lp1161
F-0.2704556758573299
aF-0.28017923474759676
aF0.16759022004356874
aF-0.12660937610360018
aF0.4353771838448833
aa(lp1162
F0.6282096277127088
aF0.8206472642034297
aF-0.26201234341707647
aF0.9184082103277633
aF0.19031739048039487
aa(lp1163
F-0.7578030500268935
aF-0.3564141187491984
aF-0.6863980617801682
aF-0.052305986731603145
aF-0.8476772183512125
aa(lp1164
F-0.22608960159987226
aF0.7391661181191495
aF-0.7477683349621919
aF0.031352566910217705
aF0.2441355421940482
aa(lp1165
F0.6634704795312064
aF0.920397334707937
aF0.1129644585060216
aF0.4535898469539765
aF0.2681984187400063
aa(lp1166
F0.43465954496368314
aF-0.04443460918681701
aF0.2978528529490344
aF-0.14052135714774733
aF0.7481605249760648
aaa(lp1167
(lp1168
F0.9674898455617494
aF-0.950666415990008
aF-0.7162884372154863
aF0.22216410656034202
aa(lp1169
F0.9972976130520318
aF-0.0664448999820555
aF-0.2894484449377854
aF0.0923192130790861
aa(lp1170
F0.7821013939240752
aF-0.7692557841504156
aF-0.4492115394466522
aF-0.32777402598576894
aa(lp1171
F0.30317125252399113
aF0.27272816274865613
aF-0.8314475030880114
aF1.041386174641385
aa(lp1172
F-0.021013804256938537
aF0.6863611678309037
aF0.5759410263402275
aF-0.4084463195638502
aaaF76.5999999999998
tp1173
a((lp1174
(lp1175
(lp1176
F0.06866547795327779
aF0.05667399027000134
aF0.5569537856578826
aF-0.9970416159570457
aF-0.25708296654489105
aa(lp1177
F-0.25665315166897207
aF-0.11671452189317538
aF0.1665767897010385
aF-0.040991475852538
aF0.8311864428779787
aa(lp1178
F-0.17386258296973392
aF-0.35913010126761635
aF0.23937829363435018
aF-0.12660937610360018
aF0.45805850723655
aa(lp1179
F0.6276180244688228
aF0.7935889863430129
aF-0.15344727416926376
aF0.9184082103277633
aF0.23861451790443958
aa(lp1180
F-0.728545314723576
aF-0.20434399581511378
aF-0.6696675880949834
aF-0.016388067410802884
aF-0.8476772183512125
aa(lp1181
F-0.28020848703213763
aF0.7391661181191495
aF-0.8373650016675228
aF0.09527353476459703
aF0.2441355421940482
aa(lp1182
F0.6243503757484972
aF0.8654456434462107
aF0.16642182863932056
aF0.4660118487580872
aF0.34568295630947554
aa(lp1183
F0.3882858777093686
aF-0.04647659792482868
aF0.2978528529490344
aF-0.26685479464664247
aF0.6977407074378518
aaa(lp1184
(lp1185
F0.9230047639113808
aF-0.950666415990008
aF-0.5535804771774334
aF0.288140054598376
aa(lp1186
F1.0114223012103583
aF-0.08116706376956909
aF-0.28181877645062053
aF0.0923192130790861
aa(lp1187
F0.7612247196472566
aF-0.586491887826991
aF-0.5460585979247842
aF-0.3770351216482559
aa(lp1188
F0.2710816864814532
aF0.23675860497468962
aF-0.83794642409949
aF0.8930196242793216
aa(lp1189
F0.04148497003081503
aF0.7969271980481764
aF0.4745075300792204
aF-0.4084463195638502
aaaF76.5499999999998
tp1190
a((lp1191
(lp1192
(lp1193
F0.06866547795327779
aF0.018279108449019643
aF0.5569537856578826
aF-0.8743583262742556
aF-0.29268723004668823
aa(lp1194
F-0.3231428013163711
aF-0.11043151796478215
aF0.2637311297796592
aF-0.040991475852538
aF0.9106647185513694
aa(lp1195
F-0.2675850378031022
aF-0.37651910317718257
aF0.1781734519798836
aF-0.029673151297906042
aF0.3737944711172656
aa(lp1196
F0.6276180244688228
aF0.8382098995778509
aF-0.25392382274785613
aF0.9184082103277633
aF0.23861451790443958
aa(lp1197
F-0.766567534249437
aF-0.3445704163232909
aF-0.6863980617801682
aF-0.016388067410802884
aF-0.8476772183512125
aa(lp1198
F-0.32907205165613557
aF0.7391661181191495
aF-0.814327555291659
aF-0.03360058573966118
aF0.2441355421940482
aa(lp1199
F0.6634704795312064
aF0.9001531621461905
aF0.10790133636958318
aF0.3712235349953868
aF0.3798918603838635
aa(lp1200
F0.15361657937410836
aF-0.04443460918681701
aF0.29663434011838247
aF-0.26685479464664247
aF0.6348729513339212
aaa(lp1201
(lp1202
F0.859076136570989
aF-0.950666415990008
aF-0.6432328786251311
aF0.288140054598376
aa(lp1203
F1.0429761360640835
aF-0.15187341743608984
aF-0.21937763547786138
aF0.07285831746098767
aa(lp1204
F0.7821013939240752
aF-0.6933952515186885
aF-0.46744498073723806
aF-0.3770351216482559
aa(lp1205
F0.3685335624223302
aF0.33540807839747644
aF-0.7385225158323566
aF0.9521720364929847
aa(lp1206
F0.04148497003081503
aF0.7237090753471526
aF0.48562198686372265
aF-0.4084463195638502
aaaF42.227896894884225
tp1207
a((lp1208
(lp1209
(lp1210
F0.06866547795327779
aF0.08479475382835767
aF0.5569537856578826
aF-0.9641772698557074
aF-0.25708296654489105
aa(lp1211
F-0.2983880251580753
aF-0.11043151796478215
aF0.0787978523583253
aF-0.040991475852538
aF0.7470818810567716
aa(lp1212
F-0.2675850378031022
aF-0.37857775575901953
aF0.15850586276532933
aF-0.18924928599060292
aF0.3737944711172656
aa(lp1213
F0.6078607012911593
aF0.8486912605688751
aF-0.15344727416926376
aF0.9923874545174881
aF0.23861451790443958
aa(lp1214
F-0.7705793671253476
aF-0.22059176164541405
aF-0.7673649874835818
aF-0.016388067410802884
aF-0.8476772183512125
aa(lp1215
F-0.24470092301013802
aF0.7391661181191495
aF-0.7632604787258707
aF0.031352566910217705
aF0.2441355421940482
aa(lp1216
F0.6634704795312064
aF0.9842382546416129
aF0.16642182863932056
aF0.37422749923907744
aF0.4764667494506285
aa(lp1217
F0.2962312686096796
aF-0.04443460918681701
aF0.35306817682573
aF-0.36736794828912306
aF0.6977407074378518
aaa(lp1218
(lp1219
F0.935457305916091
aF-0.9882213978717544
aF-0.6432328786251311
aF0.38089978101303373
aa(lp1220
F1.0114223012103583
aF-0.05800993176229372
aF-0.1636546470876144
aF0.0923192130790861
aa(lp1221
F0.7626053820272212
aF-0.7377301071824371
aF-0.5460585979247842
aF-0.3770351216482559
aa(lp1222
F0.35019673704418214
aF0.17274441054053472
aF-0.7676984449741168
aF0.9647617953800156
aa(lp1223
F0.04148497003081503
aF0.6765410463854783
aF0.5284654860227704
aF-0.4084463195638502
aaaF38.72717098262638
tp1224
a((lp1225
(lp1226
(lp1227
F0.06866547795327779
aF0.05667399027000134
aF0.5569537856578826
aF-0.8743583262742556
aF-0.25708296654489105
aa(lp1228
F-0.3231428013163711
aF-0.11043151796478215
aF0.2637311297796592
aF-0.040991475852538
aF0.9106647185513694
aa(lp1229
F-0.2675850378031022
aF-0.37651910317718257
aF0.1781734519798836
aF-0.029673151297906042
aF0.3737944711172656
aa(lp1230
F0.6276180244688228
aF0.8382098995778509
aF-0.2485819743490894
aF0.9184082103277633
aF0.23861451790443958
aa(lp1231
F-0.766567534249437
aF-0.3445704163232909
aF-0.6863980617801682
aF-0.016388067410802884
aF-0.8476772183512125
aa(lp1232
F-0.32907205165613557
aF0.7391661181191495
aF-0.7632604787258707
aF-0.03360058573966118
aF0.15270880163002226
aa(lp1233
F0.6634704795312064
aF0.9001531621461905
aF0.10790133636958318
aF0.3712235349953868
aF0.3798918603838635
aa(lp1234
F0.23808948499964905
aF-0.04443460918681701
aF0.29663434011838247
aF-0.26685479464664247
aF0.6348729513339212
aaa(lp1235
(lp1236
F0.9230047639113808
aF-0.950666415990008
aF-0.6432328786251311
aF0.288140054598376
aa(lp1237
F1.0429761360640835
aF-0.05800993176229372
aF-0.21937763547786138
aF0.07285831746098767
aa(lp1238
F0.7821013939240752
aF-0.7692557841504156
aF-0.5460585979247842
aF-0.3770351216482559
aa(lp1239
F0.3685335624223302
aF0.33540807839747644
aF-0.7385225158323566
aF1.0173313859672446
aa(lp1240
F0.04148497003081503
aF0.6765410463854783
aF0.48562198686372265
aF-0.4084463195638502
aaaF35.819103248253604
tp1241
a((lp1242
(lp1243
(lp1244
F0.06866547795327779
aF0.05667399027000134
aF0.5569537856578826
aF-0.9064168564176208
aF-0.25708296654489105
aa(lp1245
F-0.25665315166897207
aF-0.11043151796478215
aF0.012561169131979688
aF-0.040991475852538
aF0.8311864428779787
aa(lp1246
F-0.2675850378031022
aF-0.37857775575901953
aF0.23937829363435018
aF-0.12660937610360018
aF0.3737944711172656
aa(lp1247
F0.6276180244688228
aF0.7476740635450688
aF-0.15344727416926376
aF0.9184082103277633
aF0.19209650834318354
aa(lp1248
F-0.7306419628484733
aF-0.2570414724363534
aF-0.6863980617801682
aF-0.016388067410802884
aF-0.8476772183512125
aa(lp1249
F-0.24470092301013802
aF0.6447634589294198
aF-0.7632604787258707
aF0.07020862636372656
aF0.2441355421940482
aa(lp1250
F0.6634704795312064
aF0.9001531621461905
aF0.1872665742822358
aF0.5083054405645674
aF0.48175092233571
aa(lp1251
F0.3744644755457261
aF-0.08588375342277363
aF0.3050326327990266
aF-0.23498394343328213
aF0.6977407074378518
aaa(lp1252
(lp1253
F0.8845204246592323
aF-0.950666415990008
aF-0.6432328786251311
aF0.2709065182358409
aa(lp1254
F1.0114223012103583
aF-0.05800993176229372
aF-0.21937763547786138
aF0.0923192130790861
aa(lp1255
F0.7612247196472566
aF-0.7692557841504156
aF-0.4468828330961754
aF-0.3770351216482559
aa(lp1256
F0.3216492271534129
aF0.23675860497468962
aF-0.7417046570629101
aF0.9521720364929847
aa(lp1257
F0.04148497003081503
aF0.6765410463854783
aF0.4816667978582032
aF-0.44882719148914313
aaaF35.28484471604647
tp1258
a((lp1259
(lp1260
(lp1261
F-0.0792498797370909
aF0.05667399027000134
aF0.4746812298495242
aF-1.0094651652530804
aF-0.25708296654489105
aa(lp1262
F-0.25665315166897207
aF-0.014232273877431534
aF0.07491146214993173
aF-0.1394166803167256
aF0.9245391405069612
aa(lp1263
F-0.2675850378031022
aF-0.37857775575901953
aF0.23937829363435018
aF-0.12660937610360018
aF0.3737944711172656
aa(lp1264
F0.6282096277127088
aF0.8397324860046375
aF-0.22648927398845242
aF0.9184082103277633
aF0.23244699161469445
aa(lp1265
F-0.766567534249437
aF-0.3564141187491984
aF-0.6863980617801682
aF-0.016388067410802884
aF-0.8476772183512125
aa(lp1266
F-0.23796986645620008
aF0.7391661181191495
aF-0.7492679497626923
aF0.031352566910217705
aF0.2441355421940482
aa(lp1267
F0.5991490976687828
aF0.920397334707937
aF0.1129644585060216
aF0.4535898469539765
aF0.37769307919492107
aa(lp1268
F0.3674866934043756
aF-0.04443460918681701
aF0.2978528529490344
aF-0.21248344017168036
aF0.7018099481133607
aaa(lp1269
(lp1270
F0.939764995673687
aF-0.950394908921823
aF-0.7330019203203212
aF0.2570234172127023
aa(lp1271
F0.9972976130520318
aF-0.0664448999820555
aF-0.30329481803276104
aF0.0923192130790861
aa(lp1272
F0.8341363883344896
aF-0.7692557841504156
aF-0.5460585979247842
aF-0.32777402598576894
aa(lp1273
F0.30317125252399113
aF0.23675860497468962
aF-0.8314475030880114
aF1.041386174641385
aa(lp1274
F0.06860732393341626
aF0.5902355618792213
aF0.5759410263402275
aF-0.47381877306454157
aaaF23.633392132157425
tp1275
a((lp1276
(lp1277
(lp1278
F-0.09851368395637605
aF0.14712480423810634
aF0.5242357859550547
aF-0.9250857352721801
aF-0.2609596676032791
aa(lp1279
F-0.3221816274367279
aF-0.15486722870460534
aF0.09237426408164807
aF-0.11283326594013089
aF0.9252955880870812
aa(lp1280
F-0.23553707603941676
aF-0.3634859962004369
aF0.23937829363435018
aF-0.06189051792917036
aF0.3737944711172656
aa(lp1281
F0.6201814812259077
aF0.9325280780485139
aF-0.1987722036504201
aF1.0113230051612287
aF0.23244699161469445
aa(lp1282
F-0.7013187721365788
aF-0.3564141187491984
aF-0.6863980617801682
aF0.02205809042649233
aF-0.8476772183512125
aa(lp1283
F-0.23796986645620008
aF0.7391661181191495
aF-0.8220346456482747
aF-0.053317849870743714
aF0.2441355421940482
aa(lp1284
F0.6436333022905671
aF0.920397334707937
aF0.1129644585060216
aF0.4535898469539765
aF0.37769307919492107
aa(lp1285
F0.3674866934043756
aF-0.04443460918681701
aF0.22171473937067054
aF-0.18753067684490532
aF0.6240369725115587
aaa(lp1286
(lp1287
F0.939764995673687
aF-0.950666415990008
aF-0.7162884372154863
aF0.3291493337100715
aa(lp1288
F1.0105088329653258
aF-0.0664448999820555
aF-0.30329481803276104
aF0.0923192130790861
aa(lp1289
F0.8313340634360785
aF-0.7692557841504156
aF-0.5460585979247842
aF-0.32777402598576894
aa(lp1290
F0.30317125252399113
aF0.23675860497468962
aF-0.8314475030880114
aF1.041386174641385
aa(lp1291
F0.06860732393341626
aF0.5902355618792213
aF0.5759410263402275
aF-0.42302345170199646
aaaF23.42321508649503
tp1292
a((lp1293
(lp1294
(lp1295
F-0.0792498797370909
aF0.05667399027000134
aF0.5440684867335996
aF-0.9250857352721801
aF-0.25708296654489105
aa(lp1296
F-0.25665315166897207
aF-0.11043151796478215
aF0.09237426408164807
aF-0.044463504861659314
aF0.8936788557633338
aa(lp1297
F-0.28035484457132964
aF-0.37857775575901953
aF0.23937829363435018
aF-0.12660937610360018
aF0.3536181911128363
aa(lp1298
F0.7370452150075308
aF0.8397324860046375
aF-0.22648927398845242
aF0.9184082103277633
aF0.23244699161469445
aa(lp1299
F-0.766567534249437
aF-0.3564141187491984
aF-0.6863980617801682
aF-0.016388067410802884
aF-0.8476772183512125
aa(lp1300
F-0.23796986645620008
aF0.786051541354641
aF-0.8220346456482747
aF0.031352566910217705
aF0.2441355421940482
aa(lp1301
F0.6634704795312064
aF0.920397334707937
aF0.1129644585060216
aF0.4535898469539765
aF0.37769307919492107
aa(lp1302
F0.3674866934043756
aF-0.014501954172596879
aF0.2978528529490344
aF-0.21248344017168036
aF0.7018099481133607
aaa(lp1303
(lp1304
F0.8895851697281179
aF-0.9295222604313276
aF-0.7076530569761412
aF0.2570234172127023
aa(lp1305
F0.9972976130520318
aF-0.0664448999820555
aF-0.21424515842491584
aF0.0923192130790861
aa(lp1306
F0.7821013939240752
aF-0.7692557841504156
aF-0.5460585979247842
aF-0.32777402598576894
aa(lp1307
F0.30317125252399113
aF0.23675860497468962
aF-0.8314475030880114
aF1.041386174641385
aa(lp1308
F0.06860732393341626
aF0.5902355618792213
aF0.5246149340257719
aF-0.4084463195638502
aaaF22.659283315906087
tp1309
a((lp1310
(lp1311
(lp1312
F-0.003147154048225506
aF0.05667399027000134
aF0.5002130398649773
aF-0.8757280060377655
aF-0.2071996585368179
aa(lp1313
F-0.21374692631881975
aF-0.15958786414066975
aF0.05205406409146535
aF0.019511787774719846
aF0.9562770758563114
aa(lp1314
F-0.2675850378031022
aF-0.25471831367501246
aF0.22984022890577363
aF-0.03393438887266348
aF0.42045840721748
aa(lp1315
F0.6603565116663611
aF0.8397324860046375
aF-0.03723061370801688
aF0.9184082103277633
aF0.196012820673353
aa(lp1316
F-0.8494777053958208
aF-0.14346401254869984
aF-0.6422407181794961
aF-0.11884825788978176
aF-0.8147389379678927
aa(lp1317
F-0.24470092301013802
aF0.6522593100625684
aF-0.5716412762428533
aF0.031352566910217705
aF0.2441355421940482
aa(lp1318
F0.7220756526592959
aF0.920397334707937
aF0.034486887748699915
aF0.3652744516965808
aF0.3201449795848922
aa(lp1319
F0.31402486629631626
aF-0.1138169587765065
aF0.2405901535942822
aF-0.28834446335901875
aF0.7069791356256716
aaa(lp1320
(lp1321
F0.9230047639113808
aF-0.9007881549860582
aF-0.8709712692375804
aF0.21659976613608833
aa(lp1322
F1.036197005574623
aF-0.045508124206933426
aF-0.21117398515210134
aF0.08308303623977174
aa(lp1323
F0.7438334738658294
aF-0.7692557841504156
aF-0.5908935870104752
aF-0.3770351216482559
aa(lp1324
F0.43475164592453963
aF0.1445115384532042
aF-0.8701933492285733
aF0.9006255393424303
aa(lp1325
F0.015876148920092426
aF0.698845757318076
aF0.5974859640013166
aF-0.35268706607722555
aaaF22.532734951885676
tp1326
a((lp1327
(lp1328
(lp1329
F0.06866547795327779
aF0.018279108449019643
aF0.6192875411413576
aF-0.8743583262742556
aF-0.25708296654489105
aa(lp1330
F-0.3231428013163711
aF-0.11043151796478215
aF0.2637311297796592
aF-0.040991475852538
aF0.9106647185513694
aa(lp1331
F-0.2675850378031022
aF-0.37651910317718257
aF0.18238245266478895
aF-0.029673151297906042
aF0.3737944711172656
aa(lp1332
F0.6276180244688228
aF0.8382098995778509
aF-0.2702880495353677
aF0.9184082103277633
aF0.23861451790443958
aa(lp1333
F-0.766567534249437
aF-0.3445704163232909
aF-0.6277875924882773
aF-0.016388067410802884
aF-0.8476772183512125
aa(lp1334
F-0.32907205165613557
aF0.7391661181191495
aF-0.7632604787258707
aF-0.03360058573966118
aF0.2441355421940482
aa(lp1335
F0.6634704795312064
aF0.8379213725969672
aF0.10790133636958318
aF0.3712235349953868
aF0.3798918603838635
aa(lp1336
F0.15361657937410836
aF-0.04443460918681701
aF0.29663434011838247
aF-0.26685479464664247
aF0.6348729513339212
aaa(lp1337
(lp1338
F0.859076136570989
aF-0.950666415990008
aF-0.6432328786251311
aF0.288140054598376
aa(lp1339
F1.0429761360640835
aF-0.05800993176229372
aF-0.21937763547786138
aF0.07285831746098767
aa(lp1340
F0.7821013939240752
aF-0.7692557841504156
aF-0.5460585979247842
aF-0.3770351216482559
aa(lp1341
F0.3685335624223302
aF0.33540807839747644
aF-0.7385225158323566
aF0.9521720364929847
aa(lp1342
F0.04148497003081503
aF0.6765410463854783
aF0.48562198686372265
aF-0.4084463195638502
aaaF22.414918326858142
tp1343
a((lp1344
(lp1345
(lp1346
F0.06866547795327779
aF0.05667399027000134
aF0.5569537856578826
aF-0.9250857352721801
aF-0.25708296654489105
aa(lp1347
F-0.25665315166897207
aF-0.11043151796478215
aF0.1665767897010385
aF-0.040991475852538
aF0.8311864428779787
aa(lp1348
F-0.10224864620257211
aF-0.37857775575901953
aF0.23937829363435018
aF-0.12660937610360018
aF0.4137266515712257
aa(lp1349
F0.6276180244688228
aF0.8175033415513987
aF-0.15344727416926376
aF0.9184082103277633
aF0.23861451790443958
aa(lp1350
F-0.728545314723576
aF-0.2577896691746666
aF-0.6696675880949834
aF-0.10393773079655878
aF-0.8476772183512125
aa(lp1351
F-0.28020848703213763
aF0.7391661181191495
aF-0.7776841027723153
aF0.031352566910217705
aF0.2441355421940482
aa(lp1352
F0.6243503757484972
aF0.9001531621461905
aF0.16642182863932056
aF0.4660118487580872
aF0.4073755532087496
aa(lp1353
F0.3882858777093686
aF-0.04443460918681701
aF0.2978528529490344
aF-0.26685479464664247
aF0.6977407074378518
aaa(lp1354
(lp1355
F0.9230047639113808
aF-0.950666415990008
aF-0.6432328786251311
aF0.288140054598376
aa(lp1356
F1.0114223012103583
aF-0.09089066775658479
aF-0.21937763547786138
aF0.0923192130790861
aa(lp1357
F0.7612247196472566
aF-0.6244157798219151
aF-0.5460585979247842
aF-0.3770351216482559
aa(lp1358
F0.3216492271534129
aF0.23675860497468962
aF-0.83794642409949
aF0.8750151453326749
aa(lp1359
F0.04148497003081503
aF0.6765410463854783
aF0.4745075300792204
aF-0.36764142304865216
aaaF22.26990159465368
tp1360
a((lp1361
(lp1362
(lp1363
F-0.09851368395637605
aF0.14712480423810634
aF0.4550787516615037
aF-0.9250857352721801
aF-0.2609596676032791
aa(lp1364
F-0.25665315166897207
aF-0.15486722870460534
aF0.09237426408164807
aF-0.0752439411702252
aF0.9252955880870812
aa(lp1365
F-0.23553707603941676
aF-0.3634859962004369
aF0.23937829363435018
aF-0.06189051792917036
aF0.3737944711172656
aa(lp1366
F0.6282096277127088
aF0.9825481538128024
aF-0.1987722036504201
aF0.846249412150218
aF0.23244699161469445
aa(lp1367
F-0.7013187721365788
aF-0.3564141187491984
aF-0.6863980617801682
aF-0.07535460189285109
aF-0.8476772183512125
aa(lp1368
F-0.23796986645620008
aF0.7391661181191495
aF-0.8220346456482747
aF0.031352566910217705
aF0.2441355421940482
aa(lp1369
F0.6436333022905671
aF0.920397334707937
aF0.1129644585060216
aF0.4535898469539765
aF0.37769307919492107
aa(lp1370
F0.3674866934043756
aF0.01071746843199839
aF0.2978528529490344
aF-0.18753067684490532
aF0.6240369725115587
aaa(lp1371
(lp1372
F0.939764995673687
aF-0.950666415990008
aF-0.7162884372154863
aF0.2570234172127023
aa(lp1373
F1.0105088329653258
aF-0.0664448999820555
aF-0.30329481803276104
aF0.0923192130790861
aa(lp1374
F0.8313340634360785
aF-0.7692557841504156
aF-0.5460585979247842
aF-0.32777402598576894
aa(lp1375
F0.30317125252399113
aF0.14514883135602197
aF-0.8083494050932443
aF1.041386174641385
aa(lp1376
F0.06860732393341626
aF0.5902355618792213
aF0.5759410263402275
aF-0.4084463195638502
aaaF22.252477560042266
tp1377
a((lp1378
(lp1379
(lp1380
F-0.02172918875074571
aF0.05667399027000134
aF0.5002130398649773
aF-0.8757280060377655
aF-0.25708296654489105
aa(lp1381
F-0.21374692631881975
aF-0.15958786414066975
aF0.06619415341575782
aF0.019511787774719846
aF0.9562770758563114
aa(lp1382
F-0.2675850378031022
aF-0.25471831367501246
aF0.22984022890577363
aF-0.03393438887266348
aF0.3737944711172656
aa(lp1383
F0.724168439391859
aF0.8397324860046375
aF-0.03723061370801688
aF0.9184082103277633
aF0.26189994930206006
aa(lp1384
F-0.7562231886100496
aF-0.24226725761988355
aF-0.6422407181794961
aF-0.11884825788978176
aF-0.8476772183512125
aa(lp1385
F-0.24470092301013802
aF0.6522593100625684
aF-0.655372965020367
aF-0.0070615171837427534
aF0.2441355421940482
aa(lp1386
F0.6227388027801402
aF0.920397334707937
aF0.034486887748699915
aF0.3652744516965808
aF0.3201449795848922
aa(lp1387
F0.31402486629631626
aF-0.1138169587765065
aF0.2405901535942822
aF-0.3798404232486949
aF0.6292348100735261
aaa(lp1388
(lp1389
F0.9230047639113808
aF-0.908077703821919
aF-0.7287396619107945
aF0.21659976613608833
aa(lp1390
F1.0675223247301304
aF-0.045508124206933426
aF-0.2896338823792889
aF0.08308303623977174
aa(lp1391
F0.7438334738658294
aF-0.7692557841504156
aF-0.5908935870104752
aF-0.40004846758899615
aa(lp1392
F0.43475164592453963
aF0.1445115384532042
aF-0.8432698263119954
aF0.8910954976807982
aa(lp1393
F0.015876148920092426
aF0.6773399108715732
aF0.5974859640013166
aF-0.35268706607722555
aaaF22.09880079724462
tp1394
a((lp1395
(lp1396
(lp1397
F-0.0767400628516215
aF0.05667399027000134
aF0.4746812298495242
aF-0.9250857352721801
aF-0.25708296654489105
aa(lp1398
F-0.25665315166897207
aF-0.11043151796478215
aF0.09237426408164807
aF-0.0005639830202823076
aF0.9245391405069612
aa(lp1399
F-0.2675850378031022
aF-0.2851106708557983
aF0.315817233392537
aF-0.12660937610360018
aF0.4353771838448833
aa(lp1400
F0.6282096277127088
aF0.8752525876290388
aF-0.18689646937260862
aF0.9184082103277633
aF0.23244699161469445
aa(lp1401
F-0.766567534249437
aF-0.3564141187491984
aF-0.6863980617801682
aF-0.016388067410802884
aF-0.8476772183512125
aa(lp1402
F-0.22608960159987226
aF0.7891665331548167
aF-0.749188171949457
aF0.031352566910217705
aF0.2441355421940482
aa(lp1403
F0.6634704795312064
aF0.920397334707937
aF0.04375524482492124
aF0.4535898469539765
aF0.3398231345087223
aa(lp1404
F0.43465954496368314
aF-0.04443460918681701
aF0.2916989069596812
aF-0.14052135714774733
aF0.7018099481133607
aaa(lp1405
(lp1406
F0.939764995673687
aF-0.950666415990008
aF-0.7162884372154863
aF0.2570234172127023
aa(lp1407
F1.0228078541379924
aF-0.0664448999820555
aF-0.30329481803276104
aF0.0923192130790861
aa(lp1408
F0.7821013939240752
aF-0.7952058396420335
aF-0.4492115394466522
aF-0.32777402598576894
aa(lp1409
F0.30317125252399113
aF0.14177754081372945
aF-0.8314475030880114
aF1.0186891552545458
aa(lp1410
F0.06860732393341626
aF0.5902355618792213
aF0.5759410263402275
aF-0.4084463195638502
aaaF22.084528744524114
tp1411
a((lp1412
(lp1413
(lp1414
F0.06866547795327779
aF0.05667399027000134
aF0.5569537856578826
aF-0.9250857352721801
aF-0.25708296654489105
aa(lp1415
F-0.20051797280000425
aF-0.11043151796478215
aF0.1665767897010385
aF-0.040991475852538
aF0.8311864428779787
aa(lp1416
F-0.17386258296973392
aF-0.4411249342123078
aF0.23937829363435018
aF-0.12660937610360018
aF0.4137266515712257
aa(lp1417
F0.6276180244688228
aF0.8175033415513987
aF-0.22470414363556168
aF0.981358955811179
aF0.23861451790443958
aa(lp1418
F-0.728545314723576
aF-0.2959210653299112
aF-0.6696675880949834
aF-0.016388067410802884
aF-0.7101904987579871
aa(lp1419
F-0.28020848703213763
aF0.7391661181191495
aF-0.902500338295061
aF-0.04509639800486326
aF0.2441355421940482
aa(lp1420
F0.6243503757484972
aF0.8024877887106825
aF0.16642182863932056
aF0.4660118487580872
aF0.4073755532087496
aa(lp1421
F0.3882858777093686
aF-0.04443460918681701
aF0.2978528529490344
aF-0.3420140039960344
aF0.6977407074378518
aaa(lp1422
(lp1423
F0.9230047639113808
aF-0.950666415990008
aF-0.6432328786251311
aF0.288140054598376
aa(lp1424
F1.0114223012103583
aF-0.10530919400219958
aF-0.21937763547786138
aF0.0923192130790861
aa(lp1425
F0.7533482341459188
aF-0.6244157798219151
aF-0.5460585979247842
aF-0.3770351216482559
aa(lp1426
F0.3216492271534129
aF0.23675860497468962
aF-0.83794642409949
aF0.9521720364929847
aa(lp1427
F-0.00573364334669374
aF0.6765410463854783
aF0.4745075300792204
aF-0.40429888431712274
aaaF17.787149873778056
tp1428
a((lp1429
(lp1430
(lp1431
F-0.003147154048225506
aF0.05667399027000134
aF0.5002130398649773
aF-0.8757280060377655
aF-0.25708296654489105
aa(lp1432
F-0.13100312288530014
aF-0.15958786414066975
aF0.06619415341575782
aF0.02615429642620728
aF0.9562770758563114
aa(lp1433
F-0.2675850378031022
aF-0.25471831367501246
aF0.22984022890577363
aF-0.03393438887266348
aF0.3737944711172656
aa(lp1434
F0.6603565116663611
aF0.8397324860046375
aF-0.03723061370801688
aF0.9184082103277633
aF0.196012820673353
aa(lp1435
F-0.7562231886100496
aF-0.2000189641719241
aF-0.6422407181794961
aF-0.11884825788978176
aF-0.8476772183512125
aa(lp1436
F-0.24470092301013802
aF0.6522593100625684
aF-0.655372965020367
aF0.06511003813186417
aF0.2441355421940482
aa(lp1437
F0.7220756526592959
aF0.920397334707937
aF0.034486887748699915
aF0.3652744516965808
aF0.40953726023209713
aa(lp1438
F0.31402486629631626
aF-0.1138169587765065
aF0.2405901535942822
aF-0.28934627356062165
aF0.7069791356256716
aaa(lp1439
(lp1440
F0.9230047639113808
aF-0.908077703821919
aF-0.7775911548953609
aF0.21659976613608833
aa(lp1441
F1.036197005574623
aF-0.045508124206933426
aF-0.21117398515210134
aF0.08308303623977174
aa(lp1442
F0.7438334738658294
aF-0.7692557841504156
aF-0.5908935870104752
aF-0.3770351216482559
aa(lp1443
F0.43475164592453963
aF0.1445115384532042
aF-0.9333014456874189
aF0.8910954976807982
aa(lp1444
F0.015876148920092426
aF0.698845757318076
aF0.5974859640013166
aF-0.35268706607722555
aaaF15.213966519134406
tp1445
a((lp1446
(lp1447
(lp1448
F-0.0767400628516215
aF0.05667399027000134
aF0.4746812298495242
aF-0.9250857352721801
aF-0.25708296654489105
aa(lp1449
F-0.25665315166897207
aF-0.11043151796478215
aF0.09237426408164807
aF-0.0005639830202823076
aF0.9245391405069612
aa(lp1450
F-0.2675850378031022
aF-0.2851106708557983
aF0.158192736334775
aF-0.12660937610360018
aF0.4353771838448833
aa(lp1451
F0.6282096277127088
aF0.8752525876290388
aF-0.26201234341707647
aF0.9184082103277633
aF0.23244699161469445
aa(lp1452
F-0.766567534249437
aF-0.3564141187491984
aF-0.6863980617801682
aF-0.016388067410802884
aF-0.8476772183512125
aa(lp1453
F-0.22608960159987226
aF0.7891665331548167
aF-0.749188171949457
aF0.11376171368538604
aF0.2441355421940482
aa(lp1454
F0.6634704795312064
aF0.920397334707937
aF0.1129644585060216
aF0.4535898469539765
aF0.32769951744964804
aa(lp1455
F0.43465954496368314
aF-0.04443460918681701
aF0.2978528529490344
aF-0.14052135714774733
aF0.7018099481133607
aaa(lp1456
(lp1457
F0.939764995673687
aF-0.950666415990008
aF-0.7162884372154863
aF0.2570234172127023
aa(lp1458
F0.9972976130520318
aF-0.0664448999820555
aF-0.30329481803276104
aF0.0923192130790861
aa(lp1459
F0.7821013939240752
aF-0.7952058396420335
aF-0.4492115394466522
aF-0.32777402598576894
aa(lp1460
F0.30317125252399113
aF0.23675860497468962
aF-0.8314475030880114
aF1.1063966184896954
aa(lp1461
F0.06860732393341626
aF0.5902355618792213
aF0.5759410263402275
aF-0.4084463195638502
aaaF7.850753962704173
tp1462
a((lp1463
(lp1464
(lp1465
F0.06866547795327779
aF0.05667399027000134
aF0.619931392648061
aF-0.8743583262742556
aF-0.3114338562230468
aa(lp1466
F-0.3488543549060586
aF-0.01634473862941674
aF0.1665767897010385
aF-0.040991475852538
aF0.9634294385994698
aa(lp1467
F-0.3100862081602735
aF-0.37651910317718257
aF0.1781734519798836
aF-0.029673151297906042
aF0.3364495236201829
aa(lp1468
F0.729830058010445
aF0.8382098995778509
aF-0.20086670551848507
aF0.9184082103277633
aF0.23861451790443958
aa(lp1469
F-0.8230892142773245
aF-0.3445704163232909
aF-0.6863980617801682
aF0.015273236382906577
aF-0.8476772183512125
aa(lp1470
F-0.19092742006343208
aF0.7391661181191495
aF-0.7632604787258707
aF-0.03360058573966118
aF0.2441355421940482
aa(lp1471
F0.5862822700677981
aF0.9001531621461905
aF0.10790133636958318
aF0.3712235349953868
aF0.37769307919492107
aa(lp1472
F0.16088548496632407
aF0.002240941315690838
aF0.3457008204516657
aF-0.26685479464664247
aF0.6998457985697205
aaa(lp1473
(lp1474
F0.9230047639113808
aF-0.950666415990008
aF-0.6432328786251311
aF0.23757068429001427
aa(lp1475
F1.0122241301934896
aF-0.05800993176229372
aF-0.20531386565611015
aF0.003382715334298972
aa(lp1476
F0.7821013939240752
aF-0.7196894633723738
aF-0.5460585979247842
aF-0.3770351216482559
aa(lp1477
F0.3685335624223302
aF0.33540807839747644
aF-0.7385225158323566
aF0.9982085333453173
aa(lp1478
F-0.047861322301428644
aF0.6765410463854783
aF0.48562198686372265
aF-0.38613811838108986
aaaF6.98122868834409
tp1479
a((lp1480
(lp1481
(lp1482
F0.06866547795327779
aF0.04954428052766043
aF0.5569537856578826
aF-0.9064168564176208
aF-0.25708296654489105
aa(lp1483
F-0.25665315166897207
aF-0.11043151796478215
aF0.08749188146423292
aF-0.040991475852538
aF0.8311864428779787
aa(lp1484
F-0.2675850378031022
aF-0.37857775575901953
aF0.23937829363435018
aF-0.12660937610360018
aF0.3371202234047621
aa(lp1485
F0.6276180244688228
aF0.7476740635450688
aF-0.15344727416926376
aF0.9184082103277633
aF0.19209650834318354
aa(lp1486
F-0.7306419628484733
aF-0.2570414724363534
aF-0.6863980617801682
aF0.025485065671696124
aF-0.8476772183512125
aa(lp1487
F-0.24470092301013802
aF0.6447634589294198
aF-0.7632604787258707
aF0.07020862636372656
aF0.2441355421940482
aa(lp1488
F0.6634704795312064
aF0.9001531621461905
aF0.1872665742822358
aF0.4535898469539765
aF0.48175092233571
aa(lp1489
F0.3744644755457261
aF-0.04676724197857199
aF0.3050326327990266
aF-0.26685479464664247
aF0.6977407074378518
aaa(lp1490
(lp1491
F0.9230047639113808
aF-0.950666415990008
aF-0.7237270460808215
aF0.2709065182358409
aa(lp1492
F1.0114223012103583
aF-0.05800993176229372
aF-0.21937763547786138
aF0.0923192130790861
aa(lp1493
F0.7612247196472566
aF-0.7692557841504156
aF-0.5460585979247842
aF-0.3770351216482559
aa(lp1494
F0.3216492271534129
aF0.23675860497468962
aF-0.7417046570629101
aF0.9521720364929847
aa(lp1495
F0.04148497003081503
aF0.6765410463854783
aF0.4816667978582032
aF-0.44882719148914313
aaaF6.977164729356308
tp1496
a((lp1497
(lp1498
(lp1499
F-0.0792498797370909
aF0.05667399027000134
aF0.4780406740773427
aF-0.9250857352721801
aF-0.25708296654489105
aa(lp1500
F-0.23227156549343078
aF-0.11043151796478215
aF0.1620394182066248
aF-0.040991475852538
aF0.9524348758261327
aa(lp1501
F-0.28035484457132964
aF-0.37857775575901953
aF0.23937829363435018
aF-0.10810350555579641
aF0.3536181911128363
aa(lp1502
F0.6541394375768436
aF0.8397324860046375
aF-0.22648927398845242
aF0.9184082103277633
aF0.23244699161469445
aa(lp1503
F-0.766567534249437
aF-0.3564141187491984
aF-0.6863980617801682
aF-0.016388067410802884
aF-0.8476772183512125
aa(lp1504
F-0.23796986645620008
aF0.786051541354641
aF-0.8220346456482747
aF0.031352566910217705
aF0.2441355421940482
aa(lp1505
F0.6634704795312064
aF0.920397334707937
aF0.1129644585060216
aF0.4535898469539765
aF0.37769307919492107
aa(lp1506
F0.3674866934043756
aF-0.014501954172596879
aF0.2978528529490344
aF-0.21248344017168036
aF0.7018099481133607
aaa(lp1507
(lp1508
F0.939764995673687
aF-0.9295222604313276
aF-0.7162884372154863
aF0.2570234172127023
aa(lp1509
F0.9972976130520318
aF-0.059622632679548614
aF-0.30329481803276104
aF0.0923192130790861
aa(lp1510
F0.7821013939240752
aF-0.7692557841504156
aF-0.5460585979247842
aF-0.32777402598576894
aa(lp1511
F0.30317125252399113
aF0.23675860497468962
aF-0.8314475030880114
aF1.041386174641385
aa(lp1512
F0.12684566323166907
aF0.5902355618792213
aF0.5246149340257719
aF-0.4519281307065464
aaaF6.960795992338041
tp1513
a((lp1514
(lp1515
(lp1516
F0.10508890324931601
aF0.14891285314932287
aF0.48155157983684
aF-0.9281272854700096
aF-0.25708296654489105
aa(lp1517
F-0.25665315166897207
aF-0.11043151796478215
aF0.14421545750750545
aF-0.040991475852538
aF0.6897133524434426
aa(lp1518
F-0.2675850378031022
aF-0.37857775575901953
aF0.15850586276532933
aF-0.18924928599060292
aF0.3737944711172656
aa(lp1519
F0.6276180244688228
aF0.8382098995778509
aF-0.15344727416926376
aF0.9923874545174881
aF0.28867654214320393
aa(lp1520
F-0.8234431273980891
aF-0.32532775926776186
aF-0.7673649874835818
aF-0.016388067410802884
aF-0.8476772183512125
aa(lp1521
F-0.3241039652177939
aF0.7391661181191495
aF-0.8289328181509075
aF0.031352566910217705
aF0.17273927822772117
aa(lp1522
F0.569811869625361
aF0.9001531621461905
aF0.16642182863932056
aF0.37422749923907744
aF0.47543938808991704
aa(lp1523
F0.36227820572261493
aF-0.04443460918681701
aF0.2731393759709526
aF-0.3658891755393186
aF0.6977407074378518
aaa(lp1524
(lp1525
F0.9230047639113808
aF-0.950666415990008
aF-0.5897695354923257
aF0.38089978101303373
aa(lp1526
F0.9472102835149092
aF-0.05800993176229372
aF-0.2159594165869636
aF0.0923192130790861
aa(lp1527
F0.6638454900744278
aF-0.7692557841504156
aF-0.6182401137572132
aF-0.3770351216482559
aa(lp1528
F0.3823578784535265
aF0.3091019273411605
aF-0.8052048931963315
aF0.9647617953800156
aa(lp1529
F0.08761440025699868
aF0.650214288015702
aF0.5284654860227704
aF-0.4084463195638502
aaaF6.943830485424917
tp1530
a((lp1531
(lp1532
(lp1533
F-0.0792498797370909
aF0.05667399027000134
aF0.5242357859550547
aF-0.9783095052501719
aF-0.2609596676032791
aa(lp1534
F-0.25665315166897207
aF-0.19808255609387174
aF0.09237426408164807
aF-0.011800003148927665
aF0.9069104980556411
aa(lp1535
F-0.2675850378031022
aF-0.2898032713308005
aF0.24881860249075186
aF-0.10941179035597007
aF0.4187330695311857
aa(lp1536
F0.6805209136786887
aF0.8397324860046375
aF-0.1987722036504201
aF0.9728689295357845
aF0.23244699161469445
aa(lp1537
F-0.766567534249437
aF-0.3139104134382959
aF-0.7092592142738726
aF-0.016388067410802884
aF-0.8476772183512125
aa(lp1538
F-0.23796986645620008
aF0.7391661181191495
aF-0.8220346456482747
aF0.06305090559278653
aF0.2441355421940482
aa(lp1539
F0.595528000589215
aF0.7659180866973058
aF0.1129644585060216
aF0.4535898469539765
aF0.4155454867594669
aa(lp1540
F0.3674866934043756
aF-0.06407443241375171
aF0.2978528529490344
aF-0.20571264588822963
aF0.6240369725115587
aaa(lp1541
(lp1542
F0.9073910657233784
aF-0.9235491167555828
aF-0.744880819460616
aF0.2570234172127023
aa(lp1543
F1.0166036417602655
aF-0.08864406962782789
aF-0.28619612102672143
aF0.0923192130790861
aa(lp1544
F0.7939535630749001
aF-0.7692557841504156
aF-0.5460585979247842
aF-0.255275992547486
aa(lp1545
F0.37911711212876237
aF0.23675860497468962
aF-0.8238538731770421
aF1.041386174641385
aa(lp1546
F0.06860732393341626
aF0.5664753562637693
aF0.5759410263402275
aF-0.34811604594637524
aaaF6.918932310990091
tp1547
a((lp1548
(lp1549
(lp1550
F0.06866547795327779
aF0.14891285314932287
aF0.5569537856578826
aF-0.9250857352721801
aF-0.25708296654489105
aa(lp1551
F-0.25665315166897207
aF-0.11768899263553412
aF0.14421545750750545
aF-0.07585182919643135
aF0.7470818810567716
aa(lp1552
F-0.2675850378031022
aF-0.37857775575901953
aF0.15850586276532933
aF-0.18924928599060292
aF0.3737944711172656
aa(lp1553
F0.6276180244688228
aF0.8382098995778509
aF-0.15344727416926376
aF0.9923874545174881
aF0.23861451790443958
aa(lp1554
F-0.8234431273980891
aF-0.2806884938575682
aF-0.7673649874835818
aF-0.016388067410802884
aF-0.8476772183512125
aa(lp1555
F-0.24470092301013802
aF0.7391661181191495
aF-0.735454706521947
aF0.031352566910217705
aF0.2441355421940482
aa(lp1556
F0.6634704795312064
aF0.9001531621461905
aF0.16642182863932056
aF0.37422749923907744
aF0.4764667494506285
aa(lp1557
F0.2962312686096796
aF-0.17904636923920342
aF0.3509488788558553
aF-0.3658891755393186
aF0.6977407074378518
aaa(lp1558
(lp1559
F1.0225966478105286
aF-0.8997882620423614
aF-0.6548510481262696
aF0.38089978101303373
aa(lp1560
F1.0114223012103583
aF-0.05800993176229372
aF-0.2159594165869636
aF0.07793578307910201
aa(lp1561
F0.7947845614171041
aF-0.7302547647577349
aF-0.6371522580112996
aF-0.3770351216482559
aa(lp1562
F0.3823578784535265
aF0.16529433336240684
aF-0.8052048931963315
aF0.9572642613447092
aa(lp1563
F0.04148497003081503
aF0.6765410463854783
aF0.5882781962328741
aF-0.4084463195638502
aaaF6.887118901448324
tp1564
a((lp1565
(lp1566
(lp1567
F0.06866547795327779
aF0.14891285314932287
aF0.5569537856578826
aF-0.9250857352721801
aF-0.25708296654489105
aa(lp1568
F-0.25665315166897207
aF-0.11043151796478215
aF0.14421545750750545
aF-0.040991475852538
aF0.7470818810567716
aa(lp1569
F-0.2675850378031022
aF-0.37857775575901953
aF0.15850586276532933
aF-0.18924928599060292
aF0.3737944711172656
aa(lp1570
F0.7031149609067179
aF0.8382098995778509
aF-0.15344727416926376
aF0.9923874545174881
aF0.23861451790443958
aa(lp1571
F-0.8234431273980891
aF-0.316296615034252
aF-0.7673649874835818
aF-0.016388067410802884
aF-0.8476772183512125
aa(lp1572
F-0.24470092301013802
aF0.7391661181191495
aF-0.7632604787258707
aF0.031352566910217705
aF0.2441355421940482
aa(lp1573
F0.6634704795312064
aF0.9001531621461905
aF0.16642182863932056
aF0.37422749923907744
aF0.4764667494506285
aa(lp1574
F0.2962312686096796
aF-0.04443460918681701
aF0.4019951102549235
aF-0.3658891755393186
aF0.6977407074378518
aaa(lp1575
(lp1576
F0.9230047639113808
aF-0.950666415990008
aF-0.6432328786251311
aF0.38089978101303373
aa(lp1577
F1.0114223012103583
aF-0.05800993176229372
aF-0.14566849508204266
aF0.0923192130790861
aa(lp1578
F0.7626053820272212
aF-0.7692557841504156
aF-0.5460585979247842
aF-0.3770351216482559
aa(lp1579
F0.3823578784535265
aF0.23675860497468962
aF-0.8052048931963315
aF0.9878428185945721
aa(lp1580
F0.08866418143836491
aF0.6765410463854783
aF0.5284654860227704
aF-0.4084463195638502
aaaF6.8694478097955916
tp1581
a((lp1582
(lp1583
(lp1584
F-0.0792498797370909
aF0.05667399027000134
aF0.5666465841887653
aF-0.8459932756002833
aF-0.2609596676032791
aa(lp1585
F-0.25665315166897207
aF-0.15486722870460534
aF0.09237426408164807
aF-0.07541434743640402
aF0.9245391405069612
aa(lp1586
F-0.2675850378031022
aF-0.37857775575901953
aF0.23937829363435018
aF-0.12660937610360018
aF0.3737944711172656
aa(lp1587
F0.6282096277127088
aF0.8397324860046375
aF-0.1683220592916995
aF0.9184082103277633
aF0.23244699161469445
aa(lp1588
F-0.766567534249437
aF-0.4011934522880094
aF-0.6398902315662884
aF-0.016388067410802884
aF-0.8476772183512125
aa(lp1589
F-0.23796986645620008
aF0.7391661181191495
aF-0.8220346456482747
aF0.031352566910217705
aF0.2441355421940482
aa(lp1590
F0.6634704795312064
aF0.920397334707937
aF0.1129644585060216
aF0.4535898469539765
aF0.37769307919492107
aa(lp1591
F0.3674866934043756
aF-0.04443460918681701
aF0.2978528529490344
aF-0.21248344017168036
aF0.6240369725115587
aaa(lp1592
(lp1593
F0.939764995673687
aF-1.0189112396404738
aF-0.7162884372154863
aF0.2570234172127023
aa(lp1594
F1.0105088329653258
aF-0.0664448999820555
aF-0.30329481803276104
aF0.0923192130790861
aa(lp1595
F0.8313340634360785
aF-0.7692557841504156
aF-0.5460585979247842
aF-0.32777402598576894
aa(lp1596
F0.30317125252399113
aF0.16922893684012025
aF-0.8314475030880114
aF1.041386174641385
aa(lp1597
F0.12254374768028731
aF0.5902355618792213
aF0.5759410263402275
aF-0.4084463195638502
aaaF6.815379278145978
tp1598
a((lp1599
(lp1600
(lp1601
F0.06866547795327779
aF0.07329232753849067
aF0.5569537856578826
aF-0.9452884631584535
aF-0.25708296654489105
aa(lp1602
F-0.16139064730296737
aF-0.18236528167578336
aF0.08749188146423292
aF-0.040991475852538
aF0.8311864428779787
aa(lp1603
F-0.2675850378031022
aF-0.37857775575901953
aF0.23937829363435018
aF-0.12660937610360018
aF0.3737944711172656
aa(lp1604
F0.6276180244688228
aF0.8382098995778509
aF-0.15344727416926376
aF0.9184082103277633
aF0.23861451790443958
aa(lp1605
F-0.7306419628484733
aF-0.2052945338637052
aF-0.6863980617801682
aF-0.016388067410802884
aF-0.8476772183512125
aa(lp1606
F-0.24470092301013802
aF0.6447634589294198
aF-0.7632604787258707
aF0.07020862636372656
aF0.1498314566820163
aa(lp1607
F0.6634704795312064
aF0.9001531621461905
aF0.1872665742822358
aF0.4535898469539765
aF0.48175092233571
aa(lp1608
F0.3744644755457261
aF-0.04443460918681701
aF0.3050326327990266
aF-0.26685479464664247
aF0.702850997503308
aaa(lp1609
(lp1610
F0.9230047639113808
aF-0.950666415990008
aF-0.6432328786251311
aF0.288140054598376
aa(lp1611
F1.0114223012103583
aF-0.05800993176229372
aF-0.18293482173430156
aF0.0923192130790861
aa(lp1612
F0.7612247196472566
aF-0.7692557841504156
aF-0.5460585979247842
aF-0.3770351216482559
aa(lp1613
F0.3216492271534129
aF0.23675860497468962
aF-0.7588424554164894
aF0.9521720364929847
aa(lp1614
F0.1363256499795077
aF0.6765410463854783
aF0.4816667978582032
aF-0.4084463195638502
aaaF6.793602722657953
tp1615
a((lp1616
(lp1617
(lp1618
F-0.003147154048225506
aF0.05667399027000134
aF0.5002130398649773
aF-0.8757280060377655
aF-0.25708296654489105
aa(lp1619
F-0.25976995988122076
aF-0.15958786414066975
aF0.06619415341575782
aF0.019511787774719846
aF0.9562770758563114
aa(lp1620
F-0.2675850378031022
aF-0.25471831367501246
aF0.22984022890577363
aF-0.03393438887266348
aF0.3754541266607046
aa(lp1621
F0.6603565116663611
aF0.8397324860046375
aF-0.03723061370801688
aF0.8995778967789863
aF0.196012820673353
aa(lp1622
F-0.7562231886100496
aF-0.24226725761988355
aF-0.6422407181794961
aF-0.11884825788978176
aF-0.8476772183512125
aa(lp1623
F-0.24470092301013802
aF0.6522593100625684
aF-0.655372965020367
aF0.031352566910217705
aF0.2441355421940482
aa(lp1624
F0.7220756526592959
aF0.920397334707937
aF0.03125889380883188
aF0.3652744516965808
aF0.3201449795848922
aa(lp1625
F0.31402486629631626
aF-0.1138169587765065
aF0.2405901535942822
aF-0.28934627356062165
aF0.7069791356256716
aaa(lp1626
(lp1627
F0.9230047639113808
aF-0.908077703821919
aF-0.7775911548953609
aF0.21659976613608833
aa(lp1628
F1.036197005574623
aF-0.045508124206933426
aF-0.21117398515210134
aF0.08308303623977174
aa(lp1629
F0.7080789227231096
aF-0.7692557841504156
aF-0.5908935870104752
aF-0.3770351216482559
aa(lp1630
F0.43475164592453963
aF0.1445115384532042
aF-0.8701933492285733
aF0.8910954976807982
aa(lp1631
F0.08102422203401069
aF0.698845757318076
aF0.5974859640013166
aF-0.373024250555858
aaaF6.747104644756965
tp1632
a((lp1633
(lp1634
(lp1635
F-0.0792498797370909
aF0.05667399027000134
aF0.4746812298495242
aF-0.9250857352721801
aF-0.2871562124153815
aa(lp1636
F-0.3262970388933897
aF-0.11043151796478215
aF0.09237426408164807
aF-0.040991475852538
aF0.9245391405069612
aa(lp1637
F-0.25941998721339093
aF-0.37857775575901953
aF0.23937829363435018
aF-0.10935919139669568
aF0.3737944711172656
aa(lp1638
F0.6282096277127088
aF0.8397324860046375
aF-0.24375808098165358
aF0.9184082103277633
aF0.23244699161469445
aa(lp1639
F-0.8465484356439412
aF-0.3564141187491984
aF-0.6863980617801682
aF-0.016388067410802884
aF-0.9333553366699086
aa(lp1640
F-0.23796986645620008
aF0.7391661181191495
aF-0.8220346456482747
aF0.031352566910217705
aF0.2441355421940482
aa(lp1641
F0.6634704795312064
aF0.9817749096621387
aF0.1129644585060216
aF0.3986381958286099
aF0.37769307919492107
aa(lp1642
F0.34585148633225665
aF-0.04443460918681701
aF0.2978528529490344
aF-0.2814479967471515
aF0.7018099481133607
aaa(lp1643
(lp1644
F0.939764995673687
aF-0.950666415990008
aF-0.7162884372154863
aF0.2570234172127023
aa(lp1645
F1.0520616763661672
aF-0.0664448999820555
aF-0.3946098587659656
aF0.011844918815553815
aa(lp1646
F0.7821013939240752
aF-0.7692557841504156
aF-0.5460585979247842
aF-0.32777402598576894
aa(lp1647
F0.30317125252399113
aF0.23675860497468962
aF-0.8314475030880114
aF1.041386174641385
aa(lp1648
F0.09516278353392771
aF0.5133307999752683
aF0.5759410263402275
aF-0.4084463195638502
aaaF6.5130516695830405
tp1649
a((lp1650
(lp1651
(lp1652
F-0.0792498797370909
aF0.05667399027000134
aF0.5048444481192291
aF-0.9250857352721801
aF-0.25708296654489105
aa(lp1653
F-0.25665315166897207
aF-0.11043151796478215
aF0.14110198352556313
aF-0.21819311593900162
aF0.9245391405069612
aa(lp1654
F-0.28587403742205053
aF-0.37857775575901953
aF0.23937829363435018
aF-0.12660937610360018
aF0.3737944711172656
aa(lp1655
F0.6282096277127088
aF0.8397324860046375
aF-0.24154954524128655
aF0.9184082103277633
aF0.23244699161469445
aa(lp1656
F-0.766567534249437
aF-0.3564141187491984
aF-0.7469127213950357
aF-0.016388067410802884
aF-0.8476772183512125
aa(lp1657
F-0.23796986645620008
aF0.7391661181191495
aF-0.8400443958075718
aF0.031352566910217705
aF0.2441355421940482
aa(lp1658
F0.6634704795312064
aF0.920397334707937
aF0.1129644585060216
aF0.42553831489564126
aF0.37769307919492107
aa(lp1659
F0.3674866934043756
aF-0.04443460918681701
aF0.2978528529490344
aF-0.2187219642778362
aF0.7018099481133607
aaa(lp1660
(lp1661
F0.939764995673687
aF-0.950666415990008
aF-0.7076305734100623
aF0.2570234172127023
aa(lp1662
F0.9972976130520318
aF-0.0664448999820555
aF-0.30329481803276104
aF0.0923192130790861
aa(lp1663
F0.7821013939240752
aF-0.7692557841504156
aF-0.5460585979247842
aF-0.32777402598576894
aa(lp1664
F0.30317125252399113
aF0.23675860497468962
aF-0.7678876507090534
aF1.041386174641385
aa(lp1665
F0.06860732393341626
aF0.5902355618792213
aF0.5759410263402275
aF-0.4084463195638502
aaaF6.379524025004029
tp1666
a((lp1667
(lp1668
(lp1669
F0.06866547795327779
aF0.11144801140385793
aF0.6223089846713334
aF-1.0079251106956835
aF-0.25708296654489105
aa(lp1670
F-0.25665315166897207
aF-0.09226168251808448
aF0.15790351879488038
aF-0.040991475852538
aF0.8311864428779787
aa(lp1671
F-0.09802707361394067
aF-0.37857775575901953
aF0.23937829363435018
aF-0.1875539248659671
aF0.4137266515712257
aa(lp1672
F0.6276180244688228
aF0.8175033415513987
aF-0.15344727416926376
aF0.9184082103277633
aF0.23861451790443958
aa(lp1673
F-0.728545314723576
aF-0.2959210653299112
aF-0.6691741626465803
aF-0.016388067410802884
aF-0.8476772183512125
aa(lp1674
F-0.28020848703213763
aF0.7391661181191495
aF-0.8373650016675228
aF0.031352566910217705
aF0.2441355421940482
aa(lp1675
F0.6043877164870695
aF0.9871327366448147
aF0.16642182863932056
aF0.4660118487580872
aF0.4073755532087496
aa(lp1676
F0.3882858777093686
aF0.013013241772736106
aF0.2978528529490344
aF-0.3420140039960344
aF0.6977407074378518
aaa(lp1677
(lp1678
F0.9230047639113808
aF-0.950666415990008
aF-0.6027293666996524
aF0.288140054598376
aa(lp1679
F1.0114223012103583
aF-0.08696974684018817
aF-0.13318166073579615
aF0.0923192130790861
aa(lp1680
F0.7533482341459188
aF-0.6244157798219151
aF-0.5460585979247842
aF-0.3061294141981798
aa(lp1681
F0.3216492271534129
aF0.23675860497468962
aF-0.83794642409949
aF0.9521720364929847
aa(lp1682
F0.039830277741742956
aF0.6765410463854783
aF0.466164170595486
aF-0.4084463195638502
aaaF6.230355646240696
tp1683
a((lp1684
(lp1685
(lp1686
F-0.0792498797370909
aF0.05667399027000134
aF0.4746812298495242
aF-0.9250857352721801
aF-0.25708296654489105
aa(lp1687
F-0.25665315166897207
aF-0.11043151796478215
aF0.09237426408164807
aF-0.1394166803167256
aF0.9245391405069612
aa(lp1688
F-0.2675850378031022
aF-0.37857775575901953
aF0.23937829363435018
aF-0.12660937610360018
aF0.3737944711172656
aa(lp1689
F0.6282096277127088
aF0.8397324860046375
aF-0.22648927398845242
aF0.9184082103277633
aF0.23244699161469445
aa(lp1690
F-0.766567534249437
aF-0.3564141187491984
aF-0.6863980617801682
aF-0.016388067410802884
aF-0.8476772183512125
aa(lp1691
F-0.23796986645620008
aF0.7391661181191495
aF-0.7492679497626923
aF-0.06421269727916884
aF0.2441355421940482
aa(lp1692
F0.6634704795312064
aF0.920397334707937
aF0.1129644585060216
aF0.4535898469539765
aF0.37769307919492107
aa(lp1693
F0.3674866934043756
aF-0.04443460918681701
aF0.2978528529490344
aF-0.21248344017168036
aF0.7018099481133607
aaa(lp1694
(lp1695
F0.939764995673687
aF-0.950666415990008
aF-0.7330019203203212
aF0.2570234172127023
aa(lp1696
F0.9972976130520318
aF-0.0664448999820555
aF-0.30329481803276104
aF0.0923192130790861
aa(lp1697
F0.7821013939240752
aF-0.7692557841504156
aF-0.5460585979247842
aF-0.32777402598576894
aa(lp1698
F0.30317125252399113
aF0.23675860497468962
aF-0.8314475030880114
aF1.041386174641385
aa(lp1699
F0.06860732393341626
aF0.5902355618792213
aF0.5759410263402275
aF-0.4084463195638502
aaaF4.992567800148297
tp1700
a.