(lp0
((lp1
(lp2
(lp3
F0.08860507841353929
aF0.034876261719728366
aF0.4859710939561501
aF-0.929342910233601
aF-0.11294153939579282
aa(lp4
F-0.4564392865772603
aF-0.1723098145330048
aF0.19068161726002827
aF0.029928226050473537
aF0.8220091663307864
aa(lp5
F-0.2877238033035588
aF-0.403312038114011
aF0.5094474272184969
aF-0.06783811460127219
aF0.33733447070925837
aa(lp6
F0.6042615314109112
aF0.85766079964457
aF-0.05614160018495842
aF0.8875335895869965
aF0.2011411624230198
aa(lp7
F-0.8559724847302415
aF-0.26781236411993115
aF-0.7345156476369362
aF-0.04832438894214637
aF-0.7014085575161186
aa(lp8
F-0.15948632127160534
aF0.8186197357101606
aF-0.8959784990099322
aF0.031352566910217705
aF0.34650802377855094
aa(lp9
F0.7337180803381608
aF1.0101135564231867
aF-0.17316462815049544
aF0.482679287871061
aF0.39929391796274494
aa(lp10
F0.38673156385255986
aF-0.08137003195096804
aF0.271256667819736
aF-0.10204757492011916
aF0.6560298500620967
aaa(lp11
(lp12
F0.8806650692506403
aF-1.029575205683781
aF-0.5468673709098264
aF-0.004243348348071607
aa(lp13
F0.9472895136336369
aF-0.04616396126747389
aF-0.20944775905224614
aF0.048624626794493406
aa(lp14
F0.719156530829043
aF-0.6917137160792097
aF-0.43236710592395955
aF-0.4437502668230735
aa(lp15
F0.4786950198279092
aF0.08152296307234333
aF-0.9267780761296213
aF0.9218246220276474
aa(lp16
F0.0339656624222638
aF0.7000042445763432
aF0.6132688306208604
aF-0.4084463195638502
aaaF88.64999999999998
tp17
a(g1
F88.64999999999998
tp18
a(g1
F88.64999999999998
tp19
a(g1
F88.64999999999998
tp20
a(g1
F88.64999999999998
tp21
a(g1
F88.64999999999998
tp22
a(g1
F88.64999999999998
tp23
a(g1
F88.64999999999998
tp24
a(g1
F88.64999999999998
tp25
a(g1
F88.64999999999998
tp26
a(g1
F88.64999999999998
tp27
a(g1
F88.64999999999998
tp28
a(g1
F88.64999999999998
tp29
a(g1
F88.64999999999998
tp30
a(g1
F88.64999999999998
tp31
a(g1
F88.64999999999998
tp32
a(g1
F88.64999999999998
tp33
a(g1
F88.64999999999998
tp34
a(g1
F88.64999999999998
tp35
a(g1
F88.64999999999998
tp36
a(g1
F88.64999999999998
tp37
a(g1
F88.64999999999998
tp38
a(g1
F88.64999999999998
tp39
a(g1
F88.64999999999998
tp40
a(g1
F88.64999999999998
tp41
a(g1
F88.64999999999998
tp42
a(g1
F88.64999999999998
tp43
a(g1
F88.64999999999998
tp44
a(g1
F88.64999999999998
tp45
a(g1
F88.64999999999998
tp46
a(g1
F88.64999999999998
tp47
a(g1
F88.64999999999998
tp48
a(g1
F88.64999999999998
tp49
a(g1
F88.64999999999998
tp50
a(g1
F88.64999999999998
tp51
a(g1
F88.64999999999998
tp52
a(g1
F88.64999999999998
tp53
a(g1
F88.64999999999998
tp54
a(g1
F88.64999999999998
tp55
a(g1
F88.64999999999998
tp56
a(g1
F88.64999999999998
tp57
a(g1
F88.64999999999998
tp58
a(g1
F88.64999999999998
tp59
a(g1
F88.64999999999998
tp60
a(g1
F88.64999999999998
tp61
a(g1
F88.64999999999998
tp62
a(g1
F88.64999999999998
tp63
a(g1
F88.64999999999998
tp64
a(g1
F88.64999999999998
tp65
a(g1
F88.64999999999998
tp66
a(g1
F88.64999999999998
tp67
a(g1
F88.64999999999998
tp68
a(g1
F88.64999999999998
tp69
a(g1
F88.64999999999998
tp70
a(g1
F88.64999999999998
tp71
a(g1
F88.64999999999998
tp72
a(g1
F88.64999999999998
tp73
a(g1
F88.64999999999998
tp74
a(g1
F88.64999999999998
tp75
a(g1
F88.64999999999998
tp76
a(g1
F88.64999999999998
tp77
a(g1
F88.64999999999998
tp78
a(g1
F88.64999999999998
tp79
a(g1
F88.64999999999998
tp80
a(g1
F88.64999999999998
tp81
a(g1
F88.64999999999998
tp82
a(g1
F88.64999999999998
tp83
a(g1
F88.64999999999998
tp84
a(g1
F88.64999999999998
tp85
a(g1
F88.64999999999998
tp86
a(g1
F88.64999999999998
tp87
a(g1
F88.64999999999998
tp88
a(g1
F88.64999999999998
tp89
a(g1
F88.64999999999998
tp90
a(g1
F88.64999999999998
tp91
a(g1
F88.64999999999998
tp92
a(g1
F88.64999999999998
tp93
a(g1
F88.64999999999998
tp94
a(g1
F88.64999999999998
tp95
a(g1
F88.64999999999998
tp96
a(g1
F88.64999999999998
tp97
a(g1
F88.64999999999998
tp98
a(g1
F88.64999999999998
tp99
a(g1
F88.64999999999998
tp100
a(g1
F88.64999999999998
tp101
a(g1
F88.64999999999998
tp102
a(g1
F88.64999999999998
tp103
a(g1
F88.64999999999998
tp104
a(g1
F88.64999999999998
tp105
a(g1
F88.64999999999998
tp106
a(g1
F88.64999999999998
tp107
a(g1
F88.64999999999998
tp108
a(g1
F88.64999999999998
tp109
a(g1
F88.64999999999998
tp110
a(g1
F88.64999999999998
tp111
a(g1
F88.64999999999998
tp112
a(g1
F88.64999999999998
tp113
a(g1
F88.64999999999998
tp114
a(g1
F88.64999999999998
tp115
a(g1
F88.64999999999998
tp116
a.