(lp0
((lp1
(lp2
(lp3
F0.04151645566403746
aF-0.05498516926198404
aF0.5554401750686947
aF-0.929342910233601
aF-0.1577405284938155
aa(lp4
F-0.20463333897999106
aF-0.10735042793631995
aF0.002570997113094109
aF-0.05836146229859784
aF0.9084880982138378
aa(lp5
F-0.25757535170755513
aF-0.263443864578521
aF0.22668932944844183
aF-0.056936571907964986
aF0.48023271385365457
aa(lp6
F0.7388703943973197
aF0.7102910821976746
aF0.06829680248137131
aF0.8562579017333802
aF0.3258893574342656
aa(lp7
F-0.8706422528082591
aF-0.14686549042323802
aF-0.692837863874162
aF-0.006193857129844615
aF-0.8744171204877932
aa(lp8
F-0.2171093950781897
aF0.5870221675627624
aF-0.7923306545349627
aF-0.0492694061021292
aF0.19263332654282653
aa(lp9
F0.714341362878397
aF0.906527309316677
aF0.04271707411000142
aF0.48280927128480355
aF0.35211985692595943
aa(lp10
F0.18218093929602094
aF0.09323709358337462
aF0.2361542401591827
aF-0.1838123495627075
aF0.7939462026501695
aaa(lp11
(lp12
F1.1715837859522067
aF-1.0180164685089024
aF-0.6794695855541864
aF0.2336358726512687
aa(lp13
F0.8221177459117912
aF0.21204532996471853
aF0.00606433802852633
aF-0.3905371451637919
aa(lp14
F0.7425280883836409
aF-0.7313336645224282
aF-0.5641770866265953
aF-0.38622434368055414
aa(lp15
F0.42518000748369095
aF0.03782455329058794
aF-0.8778169165884087
aF0.8592792541555044
aa(lp16
F-0.1106134947888105
aF0.7869647655606847
aF0.7591872399302029
aF-0.6504877763050507
aaaF91.4
tp17
a(g1
F91.4
tp18
a(g1
F91.4
tp19
a(g1
F91.4
tp20
a(g1
F91.4
tp21
a(g1
F91.4
tp22
a(g1
F91.4
tp23
a(g1
F91.4
tp24
a(g1
F91.4
tp25
a(g1
F91.4
tp26
a(g1
F91.4
tp27
a(g1
F91.4
tp28
a(g1
F91.4
tp29
a(g1
F91.4
tp30
a(g1
F91.4
tp31
a(g1
F91.4
tp32
a(g1
F91.4
tp33
a(g1
F91.4
tp34
a(g1
F91.4
tp35
a(g1
F91.4
tp36
a(g1
F91.4
tp37
a(g1
F91.4
tp38
a(g1
F91.4
tp39
a(g1
F91.4
tp40
a(g1
F91.4
tp41
a(g1
F91.4
tp42
a(g1
F91.4
tp43
a(g1
F91.4
tp44
a(g1
F91.4
tp45
a(g1
F91.4
tp46
a(g1
F91.4
tp47
a(g1
F91.4
tp48
a(g1
F91.4
tp49
a(g1
F91.4
tp50
a(g1
F91.4
tp51
a(g1
F91.4
tp52
a(g1
F91.4
tp53
a(g1
F91.4
tp54
a(g1
F91.4
tp55
a(g1
F91.4
tp56
a(g1
F91.4
tp57
a(g1
F91.4
tp58
a(g1
F91.4
tp59
a(g1
F91.4
tp60
a(g1
F91.4
tp61
a(g1
F91.4
tp62
a(g1
F91.4
tp63
a(g1
F91.4
tp64
a(g1
F91.4
tp65
a(g1
F91.4
tp66
a(g1
F91.4
tp67
a(g1
F91.4
tp68
a(g1
F91.4
tp69
a(g1
F91.4
tp70
a(g1
F91.4
tp71
a(g1
F91.4
tp72
a(g1
F91.4
tp73
a(g1
F91.4
tp74
a(g1
F91.4
tp75
a(g1
F91.4
tp76
a(g1
F91.4
tp77
a(g1
F91.4
tp78
a(g1
F91.4
tp79
a(g1
F91.4
tp80
a(g1
F91.4
tp81
a(g1
F91.4
tp82
a(g1
F91.4
tp83
a(g1
F91.4
tp84
a(g1
F91.4
tp85
a(g1
F91.4
tp86
a(g1
F91.4
tp87
a(g1
F91.4
tp88
a(g1
F91.4
tp89
a(g1
F91.4
tp90
a(g1
F91.4
tp91
a(g1
F91.4
tp92
a(g1
F91.4
tp93
a(g1
F91.4
tp94
a(g1
F91.4
tp95
a(g1
F91.4
tp96
a(g1
F91.4
tp97
a(g1
F91.4
tp98
a(g1
F91.4
tp99
a(g1
F91.4
tp100
a(g1
F91.4
tp101
a(g1
F91.4
tp102
a(g1
F91.4
tp103
a(g1
F91.4
tp104
a(g1
F91.4
tp105
a(g1
F91.4
tp106
a(g1
F91.4
tp107
a(g1
F91.4
tp108
a(g1
F91.4
tp109
a(g1
F91.4
tp110
a(g1
F91.4
tp111
a(g1
F91.4
tp112
a(g1
F91.4
tp113
a(g1
F91.4
tp114
a(g1
F91.4
tp115
a(g1
F91.4
tp116
a.