(lp0
((lp1
(lp2
(lp3
F0.04151645566403746
aF-0.05498516926198404
aF0.5554401750686947
aF-0.929342910233601
aF-0.1577405284938155
aa(lp4
F-0.20463333897999106
aF-0.10735042793631995
aF0.002570997113094109
aF-0.05836146229859784
aF0.9084880982138378
aa(lp5
F-0.25757535170755513
aF-0.263443864578521
aF0.22668932944844183
aF-0.056936571907964986
aF0.48023271385365457
aa(lp6
F0.7388703943973197
aF0.7102910821976746
aF0.06829680248137131
aF0.8562579017333802
aF0.3258893574342656
aa(lp7
F-0.8706422528082591
aF-0.14686549042323802
aF-0.692837863874162
aF-0.006193857129844615
aF-0.8744171204877932
aa(lp8
F-0.2171093950781897
aF0.5870221675627624
aF-0.7923306545349627
aF-0.0492694061021292
aF0.19263332654282653
aa(lp9
F0.714341362878397
aF0.906527309316677
aF0.04271707411000142
aF0.48280927128480355
aF0.35211985692595943
aa(lp10
F0.18218093929602094
aF0.09323709358337462
aF0.2361542401591827
aF-0.1838123495627075
aF0.7939462026501695
aaa(lp11
(lp12
F1.1715837859522067
aF-1.0180164685089024
aF-0.6794695855541864
aF0.2336358726512687
aa(lp13
F0.8221177459117912
aF0.21204532996471853
aF0.00606433802852633
aF-0.3905371451637919
aa(lp14
F0.7425280883836409
aF-0.7313336645224282
aF-0.5641770866265953
aF-0.38622434368055414
aa(lp15
F0.42518000748369095
aF0.03782455329058794
aF-0.8778169165884087
aF0.8592792541555044
aa(lp16
F-0.1106134947888105
aF0.7869647655606847
aF0.7591872399302029
aF-0.6504877763050507
aaaF91.4
tp17
a((lp18
(lp19
(lp20
F0.04151645566403746
aF-0.05498516926198404
aF0.5554401750686947
aF-0.929342910233601
aF-0.16747479690951497
aa(lp21
F-0.26558464422992656
aF-0.10735042793631995
aF0.002570997113094109
aF-0.05836146229859784
aF0.8566447715358378
aa(lp22
F-0.2868961324089489
aF-0.263443864578521
aF0.31107910236167274
aF-0.056936571907964986
aF0.48023271385365457
aa(lp23
F0.7388703943973197
aF0.7102910821976746
aF0.06829680248137131
aF0.8562579017333802
aF0.3258893574342656
aa(lp24
F-0.8706422528082591
aF-0.14686549042323802
aF-0.692837863874162
aF-0.006193857129844615
aF-0.8951314068278704
aa(lp25
F-0.2171093950781897
aF0.5870221675627624
aF-0.7923306545349627
aF0.009868826257185612
aF0.19263332654282653
aa(lp26
F0.714341362878397
aF0.906527309316677
aF0.04271707411000142
aF0.48280927128480355
aF0.3762602297567351
aa(lp27
F0.18218093929602094
aF-0.028573757801913194
aF0.2361542401591827
aF-0.2000627411737006
aF0.7939462026501695
aaa(lp28
(lp29
F1.0831889771576304
aF-1.0180164685089024
aF-0.6794695855541864
aF0.2336358726512687
aa(lp30
F0.8221177459117912
aF0.21204532996471853
aF0.00606433802852633
aF-0.3905371451637919
aa(lp31
F0.7425280883836409
aF-0.7313336645224282
aF-0.5641770866265953
aF-0.318477773265058
aa(lp32
F0.42518000748369095
aF0.03782455329058794
aF-0.8386361435797284
aF0.8592792541555044
aa(lp33
F-0.1106134947888105
aF0.7869647655606847
aF0.7591872399302029
aF-0.6504877763050507
aaaF91.35000000000001
tp34
a((lp35
(lp36
(lp37
F0.04151645566403746
aF-0.05498516926198404
aF0.5554401750686947
aF-0.929342910233601
aF-0.16747479690951497
aa(lp38
F-0.20463333897999106
aF-0.10735042793631995
aF0.002570997113094109
aF-0.05836146229859784
aF0.9546946549371416
aa(lp39
F-0.25757535170755513
aF-0.263443864578521
aF0.22668932944844183
aF-0.056936571907964986
aF0.48023271385365457
aa(lp40
F0.7388703943973197
aF0.7102910821976746
aF0.06829680248137131
aF0.8562579017333802
aF0.3258893574342656
aa(lp41
F-0.8706422528082591
aF-0.14686549042323802
aF-0.692837863874162
aF-0.006193857129844615
aF-0.8744171204877932
aa(lp42
F-0.2171093950781897
aF0.5870221675627624
aF-0.7923306545349627
aF-0.0492694061021292
aF0.19263332654282653
aa(lp43
F0.714341362878397
aF0.906527309316677
aF0.04271707411000142
aF0.48280927128480355
aF0.3762602297567351
aa(lp44
F0.18218093929602094
aF0.04308261795218951
aF0.2361542401591827
aF-0.1838123495627075
aF0.7939462026501695
aaa(lp45
(lp46
F1.0831889771576304
aF-1.0180164685089024
aF-0.6794695855541864
aF0.2336358726512687
aa(lp47
F0.8221177459117912
aF0.21204532996471853
aF0.00606433802852633
aF-0.3905371451637919
aa(lp48
F0.7425280883836409
aF-0.7313336645224282
aF-0.5641770866265953
aF-0.38622434368055414
aa(lp49
F0.42518000748369095
aF0.03782455329058794
aF-0.8778169165884087
aF0.8592792541555044
aa(lp50
F-0.1106134947888105
aF0.7869647655606847
aF0.7591872399302029
aF-0.6504877763050507
aaaF91.35000000000001
tp51
a((lp52
(lp53
(lp54
F0.04151645566403746
aF-0.05498516926198404
aF0.5075015747312017
aF-0.929342910233601
aF-0.16747479690951497
aa(lp55
F-0.26558464422992656
aF-0.07100939338474062
aF0.002570997113094109
aF-0.05836146229859784
aF0.9546946549371416
aa(lp56
F-0.25757535170755513
aF-0.263443864578521
aF0.22668932944844183
aF-0.056936571907964986
aF0.4772228782204721
aa(lp57
F0.7388703943973197
aF0.7102910821976746
aF0.06829680248137131
aF0.8562579017333802
aF0.3258893574342656
aa(lp58
F-0.8706422528082591
aF-0.14686549042323802
aF-0.7420183633396145
aF-0.006193857129844615
aF-0.8951314068278704
aa(lp59
F-0.2171093950781897
aF0.5870221675627624
aF-0.7923306545349627
aF0.009868826257185612
aF0.23731541455801475
aa(lp60
F0.714341362878397
aF0.906527309316677
aF0.13562473540249764
aF0.48280927128480355
aF0.3762602297567351
aa(lp61
F0.10645261546798325
aF0.04308261795218951
aF0.2361542401591827
aF-0.15803053933373015
aF0.7939462026501695
aaa(lp62
(lp63
F1.0831889771576304
aF-1.0180164685089024
aF-0.6794695855541864
aF0.2336358726512687
aa(lp64
F0.8221177459117912
aF0.21204532996471853
aF0.00606433802852633
aF-0.3905371451637919
aa(lp65
F0.7425280883836409
aF-0.7313336645224282
aF-0.5641770866265953
aF-0.38622434368055414
aa(lp66
F0.42518000748369095
aF0.03782455329058794
aF-0.8386361435797284
aF0.8184061613393985
aa(lp67
F-0.1106134947888105
aF0.7869647655606847
aF0.7591872399302029
aF-0.6504877763050507
aaaF91.35000000000001
tp68
a((lp69
(lp70
(lp71
F0.058967391313517914
aF-0.05498516926198404
aF0.5710819989775245
aF-0.929342910233601
aF-0.32540947427873956
aa(lp72
F-0.21911974939615236
aF-0.032832169419204374
aF-0.028289974094729248
aF-0.13709650516824773
aF0.8566447715358378
aa(lp73
F-0.23724803453244647
aF-0.34556907297260825
aF0.4027533746740724
aF-0.12118912322009258
aF0.599486428898372
aa(lp74
F0.7501415446716965
aF0.7102910821976746
aF0.017375862240640225
aF0.8775210698703403
aF0.3309183666281338
aa(lp75
F-0.8706422528082591
aF-0.23702837016176065
aF-0.6268579317325493
aF0.0013958689577334704
aF-0.8951314068278704
aa(lp76
F-0.2354530430627676
aF0.7797454215540964
aF-0.9137846560276596
aF-0.05948650230212534
aF0.11206344692856228
aa(lp77
F0.8937497511809617
aF0.866963337547465
aF-0.019739595100579405
aF0.5048330660985568
aF0.41423215929295076
aa(lp78
F0.18891330528279193
aF0.06381875875315243
aF0.20180838207811777
aF-0.25579470611816063
aF0.7939462026501695
aaa(lp79
(lp80
F1.0831889771576304
aF-1.0180164685089024
aF-0.6794695855541864
aF0.2336358726512687
aa(lp81
F0.8025535747471941
aF0.18920741707445574
aF0.06205205376095793
aF-0.3286967903380199
aa(lp82
F0.7455901086213411
aF-0.6763367494804529
aF-0.6228933495757891
aF-0.318477773265058
aa(lp83
F0.42518000748369095
aF0.13110750617854622
aF-0.8386361435797284
aF0.8101554102945544
aa(lp84
F-0.1106134947888105
aF0.6903433080811276
aF0.7591872399302029
aF-0.692322872169675
aaaF91.35000000000001
tp85
a((lp86
(lp87
(lp88
F0.04151645566403746
aF-0.05498516926198404
aF0.5690315162187412
aF-0.929342910233601
aF-0.16747479690951497
aa(lp89
F-0.26558464422992656
aF-0.10735042793631995
aF0.002570997113094109
aF-0.05836146229859784
aF0.8566447715358378
aa(lp90
F-0.2675850378031022
aF-0.34556907297260825
aF0.38808404143617825
aF-0.056936571907964986
aF0.5387675063385138
aa(lp91
F0.7388703943973197
aF0.7102910821976746
aF0.06829680248137131
aF0.8775210698703403
aF0.2627395146951576
aa(lp92
F-0.8706422528082591
aF-0.14686549042323802
aF-0.692837863874162
aF0.023817177063577933
aF-0.8951314068278704
aa(lp93
F-0.2171093950781897
aF0.5870221675627624
aF-0.8705430092407515
aF0.025357625961980632
aF0.19263332654282653
aa(lp94
F0.8117471199413164
aF0.906527309316677
aF-0.019739595100579405
aF0.48280927128480355
aF0.3762602297567351
aa(lp95
F0.1441309941250814
aF-0.028573757801913194
aF0.2361542401591827
aF-0.2000627411737006
aF0.7939462026501695
aaa(lp96
(lp97
F1.0831889771576304
aF-1.0180164685089024
aF-0.6794695855541864
aF0.2336358726512687
aa(lp98
F0.7985750174232062
aF0.13522503754994192
aF-0.034268637702462204
aF-0.31634549900334197
aa(lp99
F0.7455901086213411
aF-0.7313336645224282
aF-0.5641770866265953
aF-0.318477773265058
aa(lp100
F0.42518000748369095
aF0.03782455329058794
aF-0.8386361435797284
aF0.8101554102945544
aa(lp101
F-0.1106134947888105
aF0.7869647655606847
aF0.7591872399302029
aF-0.6504877763050507
aaaF91.30000000000001
tp102
a((lp103
(lp104
(lp105
F0.04151645566403746
aF-0.05498516926198404
aF0.5690315162187412
aF-0.929342910233601
aF-0.16747479690951497
aa(lp106
F-0.26558464422992656
aF-0.10735042793631995
aF0.006233886039797165
aF-0.05836146229859784
aF0.8566447715358378
aa(lp107
F-0.2675850378031022
aF-0.34556907297260825
aF0.38808404143617825
aF-0.056936571907964986
aF0.5387675063385138
aa(lp108
F0.7388703943973197
aF0.7102910821976746
aF0.06829680248137131
aF0.8775210698703403
aF0.2627395146951576
aa(lp109
F-0.8706422528082591
aF-0.14686549042323802
aF-0.692837863874162
aF0.023817177063577933
aF-0.8670631764585359
aa(lp110
F-0.2171093950781897
aF0.5870221675627624
aF-0.8705430092407515
aF0.025357625961980632
aF0.282558355409642
aa(lp111
F0.8117471199413164
aF0.906527309316677
aF-0.019739595100579405
aF0.48280927128480355
aF0.3762602297567351
aa(lp112
F0.1441309941250814
aF-0.028573757801913194
aF0.2361542401591827
aF-0.2000627411737006
aF0.7939462026501695
aaa(lp113
(lp114
F1.0831889771576304
aF-1.0180164685089024
aF-0.6794695855541864
aF0.2336358726512687
aa(lp115
F0.7985750174232062
aF0.13522503754994192
aF-0.034268637702462204
aF-0.31634549900334197
aa(lp116
F0.7455901086213411
aF-0.7313336645224282
aF-0.5641770866265953
aF-0.318477773265058
aa(lp117
F0.42518000748369095
aF0.03782455329058794
aF-0.8386361435797284
aF0.8101554102945544
aa(lp118
F-0.1106134947888105
aF0.7869647655606847
aF0.7591872399302029
aF-0.6504877763050507
aaaF91.30000000000001
tp119
a((lp120
(lp121
(lp122
F0.04151645566403746
aF-0.05498516926198404
aF0.5690315162187412
aF-0.929342910233601
aF-0.16747479690951497
aa(lp123
F-0.26558464422992656
aF-0.10735042793631995
aF0.002570997113094109
aF-0.05836146229859784
aF0.8566447715358378
aa(lp124
F-0.2675850378031022
aF-0.34556907297260825
aF0.38808404143617825
aF-0.13239541864537852
aF0.5387675063385138
aa(lp125
F0.7388703943973197
aF0.7102910821976746
aF0.06829680248137131
aF0.8775210698703403
aF0.2627395146951576
aa(lp126
F-0.8706422528082591
aF-0.14686549042323802
aF-0.692837863874162
aF-0.03099733737190762
aF-0.8951314068278704
aa(lp127
F-0.2171093950781897
aF0.5870221675627624
aF-0.8705430092407515
aF0.025357625961980632
aF0.19263332654282653
aa(lp128
F0.8117471199413164
aF0.906527309316677
aF-0.019739595100579405
aF0.48280927128480355
aF0.3762602297567351
aa(lp129
F0.24373280613248222
aF-0.028573757801913194
aF0.2361542401591827
aF-0.15055053483846362
aF0.7939462026501695
aaa(lp130
(lp131
F1.0831889771576304
aF-1.0180164685089024
aF-0.6794695855541864
aF0.3111476258018386
aa(lp132
F0.7985750174232062
aF0.13522503754994192
aF-0.034268637702462204
aF-0.31634549900334197
aa(lp133
F0.7455901086213411
aF-0.7313336645224282
aF-0.5641770866265953
aF-0.318477773265058
aa(lp134
F0.42518000748369095
aF0.03782455329058794
aF-0.8386361435797284
aF0.8101554102945544
aa(lp135
F-0.11895651791734739
aF0.7869647655606847
aF0.7591872399302029
aF-0.6504877763050507
aaaF91.30000000000001
tp136
a((lp137
(lp138
(lp139
F0.058967391313517914
aF-0.05498516926198404
aF0.5253275694855789
aF-0.929342910233601
aF-0.2526549655513918
aa(lp140
F-0.26558464422992656
aF-0.10735042793631995
aF-0.028289974094729248
aF-0.09340121503557734
aF0.8566447715358378
aa(lp141
F-0.2675850378031022
aF-0.34556907297260825
aF0.45905876366922793
aF-0.12118912322009258
aF0.599486428898372
aa(lp142
F0.6732845308522831
aF0.7102910821976746
aF-0.006844482740945693
aF0.8775210698703403
aF0.3309183666281338
aa(lp143
F-0.8706422528082591
aF-0.14686549042323802
aF-0.6268579317325493
aF0.0013958689577334704
aF-0.8951314068278704
aa(lp144
F-0.2354530430627676
aF0.6216898589733283
aF-0.9137846560276596
aF-0.05948650230212534
aF0.17590261410380376
aa(lp145
F0.8937497511809617
aF0.9661783797367681
aF-0.019739595100579405
aF0.48280927128480355
aF0.41423215929295076
aa(lp146
F0.2299864071536119
aF0.06381875875315243
aF0.2361542401591827
aF-0.25579470611816063
aF0.7939462026501695
aaa(lp147
(lp148
F1.0831889771576304
aF-1.0180164685089024
aF-0.6794695855541864
aF0.2336358726512687
aa(lp149
F0.8025535747471941
aF0.15574334684013783
aF-0.034268637702462204
aF-0.3286967903380199
aa(lp150
F0.7455901086213411
aF-0.7692557841504156
aF-0.6228933495757891
aF-0.318477773265058
aa(lp151
F0.42518000748369095
aF0.03782455329058794
aF-0.8386361435797284
aF0.8101554102945544
aa(lp152
F-0.1106134947888105
aF0.6903433080811276
aF0.7591872399302029
aF-0.692322872169675
aaaF91.30000000000001
tp153
a((lp154
(lp155
(lp156
F0.07620833245291077
aF-0.05498516926198404
aF0.5690315162187412
aF-0.929342910233601
aF-0.16747479690951497
aa(lp157
F-0.26558464422992656
aF-0.10735042793631995
aF0.002570997113094109
aF-0.05836146229859784
aF0.8566447715358378
aa(lp158
F-0.2675850378031022
aF-0.34556907297260825
aF0.33142163047822415
aF-0.13239541864537852
aF0.5387675063385138
aa(lp159
F0.7388703943973197
aF0.7102910821976746
aF0.06829680248137131
aF0.8775210698703403
aF0.2627395146951576
aa(lp160
F-0.8706422528082591
aF-0.14686549042323802
aF-0.692837863874162
aF-0.03099733737190762
aF-0.8951314068278704
aa(lp161
F-0.2171093950781897
aF0.5870221675627624
aF-0.8747451941722189
aF0.025357625961980632
aF0.19263332654282653
aa(lp162
F0.8117471199413164
aF0.906527309316677
aF-0.03480359268723625
aF0.48280927128480355
aF0.3762602297567351
aa(lp163
F0.24373280613248222
aF-0.028573757801913194
aF0.2361542401591827
aF-0.15055053483846362
aF0.8442158247618655
aaa(lp164
(lp165
F1.0831889771576304
aF-1.0180164685089024
aF-0.6794695855541864
aF0.3111476258018386
aa(lp166
F0.7985750174232062
aF0.13522503754994192
aF-0.034268637702462204
aF-0.31634549900334197
aa(lp167
F0.7455901086213411
aF-0.7313336645224282
aF-0.5641770866265953
aF-0.318477773265058
aa(lp168
F0.42518000748369095
aF0.03782455329058794
aF-0.8386361435797284
aF0.8101554102945544
aa(lp169
F-0.11895651791734739
aF0.7869647655606847
aF0.7591872399302029
aF-0.6504877763050507
aaaF91.30000000000001
tp170
a((lp171
(lp172
(lp173
F0.04151645566403746
aF-0.001668821632506333
aF0.5253275694855789
aF-0.9267414694926897
aF-0.16747479690951497
aa(lp174
F-0.3551803120731912
aF0.015085641038582724
aF0.05980870934282431
aF-0.09340121503557734
aF0.8566447715358378
aa(lp175
F-0.2675850378031022
aF-0.397281455103394
aF0.38808404143617825
aF0.15496513359528155
aF0.35324349137612576
aa(lp176
F0.6515220258974059
aF0.715605831880394
aF-0.006844482740945693
aF0.8775210698703403
aF0.3309183666281338
aa(lp177
F-0.9334142956875177
aF-0.08581170014793917
aF-0.6268579317325493
aF0.0013958689577334704
aF-0.7976096932785386
aa(lp178
F-0.2171093950781897
aF0.5315159479461679
aF-0.8705430092407515
aF-0.012006073845828684
aF0.19263332654282653
aa(lp179
F0.8477860476898763
aF0.9661783797367681
aF0.0049859393615870745
aF0.4854120108143508
aF0.41496178500760267
aa(lp180
F0.1441309941250814
aF0.06458948873351233
aF0.2361542401591827
aF-0.21634216269053513
aF0.7939462026501695
aaa(lp181
(lp182
F1.0028738564161332
aF-1.054745879835037
aF-0.8483559812281681
aF0.2336358726512687
aa(lp183
F0.8025535747471941
aF0.15574334684013783
aF-0.034268637702462204
aF-0.31634549900334197
aa(lp184
F0.6729669489435856
aF-0.7692557841504156
aF-0.5641770866265953
aF-0.22368255879158122
aa(lp185
F0.42518000748369095
aF0.03782455329058794
aF-0.8386361435797284
aF0.878835320573144
aa(lp186
F-0.1106134947888105
aF0.7720492202394783
aF0.7591872399302029
aF-0.6418822672610943
aaaF91.30000000000001
tp187
a((lp188
(lp189
(lp190
F0.058967391313517914
aF-0.05498516926198404
aF0.5253275694855789
aF-0.929342910233601
aF-0.2526549655513918
aa(lp191
F-0.26558464422992656
aF-0.10735042793631995
aF-0.028289974094729248
aF-0.09340121503557734
aF0.8566447715358378
aa(lp192
F-0.23724803453244647
aF-0.34556907297260825
aF0.45905876366922793
aF-0.12118912322009258
aF0.599486428898372
aa(lp193
F0.6732845308522831
aF0.7102910821976746
aF-0.006844482740945693
aF0.8775210698703403
aF0.3309183666281338
aa(lp194
F-0.8706422528082591
aF-0.14686549042323802
aF-0.6268579317325493
aF0.0013958689577334704
aF-0.8951314068278704
aa(lp195
F-0.2354530430627676
aF0.6216898589733283
aF-0.9137846560276596
aF-0.05948650230212534
aF0.17590261410380376
aa(lp196
F0.8937497511809617
aF0.9661783797367681
aF-0.019739595100579405
aF0.48280927128480355
aF0.41423215929295076
aa(lp197
F0.2299864071536119
aF0.06381875875315243
aF0.2361542401591827
aF-0.25579470611816063
aF0.7939462026501695
aaa(lp198
(lp199
F1.0831889771576304
aF-1.0180164685089024
aF-0.6794695855541864
aF0.2336358726512687
aa(lp200
F0.8025535747471941
aF0.15574334684013783
aF-0.034268637702462204
aF-0.3286967903380199
aa(lp201
F0.7455901086213411
aF-0.7692557841504156
aF-0.6228933495757891
aF-0.318477773265058
aa(lp202
F0.42518000748369095
aF0.03782455329058794
aF-0.8386361435797284
aF0.8101554102945544
aa(lp203
F-0.1106134947888105
aF0.6903433080811276
aF0.7591872399302029
aF-0.692322872169675
aaaF91.30000000000001
tp204
a((lp205
(lp206
(lp207
F0.0298669625017786
aF-0.05498516926198404
aF0.5710819989775245
aF-0.929342910233601
aF-0.32540947427873956
aa(lp208
F-0.21911974939615236
aF-0.032832169419204374
aF-0.028289974094729248
aF-0.13709650516824773
aF0.8566447715358378
aa(lp209
F-0.23724803453244647
aF-0.34556907297260825
aF0.5322715716547765
aF-0.12118912322009258
aF0.599486428898372
aa(lp210
F0.7501415446716965
aF0.7102910821976746
aF0.017375862240640225
aF0.8775210698703403
aF0.3309183666281338
aa(lp211
F-0.8706422528082591
aF-0.14686549042323802
aF-0.6268579317325493
aF0.0013958689577334704
aF-0.8951314068278704
aa(lp212
F-0.2354530430627676
aF0.6965281999594554
aF-1.0067407383692655
aF-0.05948650230212534
aF0.11206344692856228
aa(lp213
F0.8937497511809617
aF0.866963337547465
aF-0.025379484961784854
aF0.5491495832582123
aF0.41423215929295076
aa(lp214
F0.18891330528279193
aF0.06381875875315243
aF0.2652802646494302
aF-0.25579470611816063
aF0.7577027532194213
aaa(lp215
(lp216
F1.0831889771576304
aF-1.0180164685089024
aF-0.6794695855541864
aF0.2336358726512687
aa(lp217
F0.8025535747471941
aF0.18920741707445574
aF0.06205205376095793
aF-0.3286967903380199
aa(lp218
F0.7455901086213411
aF-0.7692557841504156
aF-0.6228933495757891
aF-0.318477773265058
aa(lp219
F0.42518000748369095
aF0.03782455329058794
aF-0.8386361435797284
aF0.8101554102945544
aa(lp220
F-0.1106134947888105
aF0.6903433080811276
aF0.7591872399302029
aF-0.692322872169675
aaaF91.30000000000001
tp221
a((lp222
(lp223
(lp224
F0.058967391313517914
aF-0.05498516926198404
aF0.5178822699219827
aF-0.9996087423293321
aF-0.2526549655513918
aa(lp225
F-0.26558464422992656
aF-0.10735042793631995
aF-0.05191721313323697
aF-0.09340121503557734
aF0.8566447715358378
aa(lp226
F-0.23724803453244647
aF-0.34556907297260825
aF0.45905876366922793
aF-0.12118912322009258
aF0.599486428898372
aa(lp227
F0.665750526159883
aF0.7102910821976746
aF-0.006844482740945693
aF0.8775210698703403
aF0.3309183666281338
aa(lp228
F-0.8706422528082591
aF-0.14686549042323802
aF-0.6268579317325493
aF0.0013958689577334704
aF-0.8951314068278704
aa(lp229
F-0.2354530430627676
aF0.6216898589733283
aF-0.9137846560276596
aF-0.05948650230212534
aF0.17590261410380376
aa(lp230
F0.8937497511809617
aF0.9496749518177096
aF-0.019739595100579405
aF0.38425867372674305
aF0.41423215929295076
aa(lp231
F0.2299864071536119
aF0.06381875875315243
aF0.2361542401591827
aF-0.19262649304086416
aF0.7939462026501695
aaa(lp232
(lp233
F1.0831889771576304
aF-1.0180164685089024
aF-0.6794695855541864
aF0.2336358726512687
aa(lp234
F0.8025535747471941
aF0.15574334684013783
aF-0.034268637702462204
aF-0.3286967903380199
aa(lp235
F0.7455901086213411
aF-0.6784325113825729
aF-0.6228933495757891
aF-0.318477773265058
aa(lp236
F0.42518000748369095
aF0.03782455329058794
aF-0.8386361435797284
aF0.8101554102945544
aa(lp237
F-0.1106134947888105
aF0.6903433080811276
aF0.7591872399302029
aF-0.692322872169675
aaaF91.30000000000001
tp238
a((lp239
(lp240
(lp241
F0.058967391313517914
aF-0.03646545376355674
aF0.4346041624809325
aF-0.929342910233601
aF-0.34192117494722374
aa(lp242
F-0.26558464422992656
aF-0.10735042793631995
aF0.06958194886876694
aF-0.17978825359974537
aF0.9349371775309134
aa(lp243
F-0.2675850378031022
aF-0.34556907297260825
aF0.45905876366922793
aF-0.12118912322009258
aF0.599486428898372
aa(lp244
F0.649883928978159
aF0.7410289176720255
aF-0.006844482740945693
aF0.8775210698703403
aF0.2688172202119428
aa(lp245
F-0.8706422528082591
aF-0.14686549042323802
aF-0.6268579317325493
aF0.0013958689577334704
aF-0.8484380653536054
aa(lp246
F-0.2354530430627676
aF0.6216898589733283
aF-0.9137846560276596
aF-0.05948650230212534
aF0.17590261410380376
aa(lp247
F0.8937497511809617
aF0.9661783797367681
aF-0.019739595100579405
aF0.5001786515240939
aF0.41423215929295076
aa(lp248
F0.2664724253173989
aF0.06381875875315243
aF0.2361542401591827
aF-0.25579470611816063
aF0.7939462026501695
aaa(lp249
(lp250
F1.0831889771576304
aF-1.0180164685089024
aF-0.6794695855541864
aF0.1757580436888681
aa(lp251
F0.8025535747471941
aF0.15574334684013783
aF-0.034268637702462204
aF-0.3286967903380199
aa(lp252
F0.7455901086213411
aF-0.7692557841504156
aF-0.6228933495757891
aF-0.318477773265058
aa(lp253
F0.42518000748369095
aF0.1368857731021868
aF-0.8386361435797284
aF0.8101554102945544
aa(lp254
F-0.1106134947888105
aF0.6903433080811276
aF0.7591872399302029
aF-0.6109563598584943
aaaF91.30000000000001
tp255
a((lp256
(lp257
(lp258
F0.04151645566403746
aF-0.05498516926198404
aF0.5554401750686947
aF-0.929342910233601
aF-0.16747479690951497
aa(lp259
F-0.20463333897999106
aF-0.10735042793631995
aF0.002570997113094109
aF-0.05836146229859784
aF0.9546946549371416
aa(lp260
F-0.25757535170755513
aF-0.263443864578521
aF0.22668932944844183
aF-0.056936571907964986
aF0.48023271385365457
aa(lp261
F0.6719877784114499
aF0.7102910821976746
aF0.06829680248137131
aF0.8562579017333802
aF0.3258893574342656
aa(lp262
F-0.8706422528082591
aF-0.14686549042323802
aF-0.692837863874162
aF-0.006193857129844615
aF-0.8744171204877932
aa(lp263
F-0.2171093950781897
aF0.5870221675627624
aF-0.7923306545349627
aF-0.0492694061021292
aF0.11492530263245415
aa(lp264
F0.714341362878397
aF0.906527309316677
aF0.04271707411000142
aF0.48280927128480355
aF0.3762602297567351
aa(lp265
F0.18218093929602094
aF0.04308261795218951
aF0.2361542401591827
aF-0.1838123495627075
aF0.7939462026501695
aaa(lp266
(lp267
F1.1647197773864542
aF-1.0190481651865706
aF-0.6794695855541864
aF0.2336358726512687
aa(lp268
F0.8221177459117912
aF0.21204532996471853
aF0.00606433802852633
aF-0.3905371451637919
aa(lp269
F0.7425280883836409
aF-0.7313336645224282
aF-0.5641770866265953
aF-0.38622434368055414
aa(lp270
F0.42518000748369095
aF0.03782455329058794
aF-0.8778169165884087
aF0.8592792541555044
aa(lp271
F-0.1106134947888105
aF0.8358292404895803
aF0.7591872399302029
aF-0.6504877763050507
aaaF91.30000000000001
tp272
a((lp273
(lp274
(lp275
F0.057124230474114995
aF-0.05498516926198404
aF0.5690315162187412
aF-0.929342910233601
aF-0.16747479690951497
aa(lp276
F-0.26558464422992656
aF-0.10735042793631995
aF-0.0725236110435536
aF-0.05836146229859784
aF0.8566447715358378
aa(lp277
F-0.2675850378031022
aF-0.3935884485348299
aF0.38808404143617825
aF-0.010092160055524657
aF0.5387675063385138
aa(lp278
F0.7388703943973197
aF0.7649911955883916
aF0.06829680248137131
aF0.8775210698703403
aF0.2627395146951576
aa(lp279
F-0.8053918730123614
aF-0.14686549042323802
aF-0.692837863874162
aF0.023817177063577933
aF-0.8670631764585359
aa(lp280
F-0.3119579447968881
aF0.5870221675627624
aF-0.8705430092407515
aF0.025357625961980632
aF0.282558355409642
aa(lp281
F0.8117471199413164
aF0.906527309316677
aF-0.09450904704424894
aF0.48280927128480355
aF0.3762602297567351
aa(lp282
F0.1441309941250814
aF-0.028573757801913194
aF0.21632845166738177
aF-0.2000627411737006
aF0.7939462026501695
aaa(lp283
(lp284
F1.0831889771576304
aF-1.0180164685089024
aF-0.6508264221015815
aF0.25066885181901477
aa(lp285
F0.7985750174232062
aF0.13522503754994192
aF-0.034268637702462204
aF-0.31634549900334197
aa(lp286
F0.7455901086213411
aF-0.7051065272572692
aF-0.6381866942561212
aF-0.318477773265058
aa(lp287
F0.42518000748369095
aF0.03782455329058794
aF-0.8386361435797284
aF0.8101554102945544
aa(lp288
F-0.1106134947888105
aF0.7869647655606847
aF0.8153052581656556
aF-0.6504877763050507
aaaF91.30000000000001
tp289
a((lp290
(lp291
(lp292
F0.057124230474114995
aF-0.05498516926198404
aF0.5690315162187412
aF-0.929342910233601
aF-0.16747479690951497
aa(lp293
F-0.26558464422992656
aF-0.10735042793631995
aF-0.0725236110435536
aF-0.05836146229859784
aF0.8566447715358378
aa(lp294
F-0.2675850378031022
aF-0.3540161436151953
aF0.38808404143617825
aF-0.06743130407373094
aF0.5387675063385138
aa(lp295
F0.7388703943973197
aF0.7102910821976746
aF0.06829680248137131
aF0.7858448252449235
aF0.2627395146951576
aa(lp296
F-0.8706422528082591
aF-0.14686549042323802
aF-0.692837863874162
aF0.023817177063577933
aF-0.8670631764585359
aa(lp297
F-0.2171093950781897
aF0.5870221675627624
aF-0.8705430092407515
aF0.025357625961980632
aF0.282558355409642
aa(lp298
F0.8117471199413164
aF0.906527309316677
aF-0.09450904704424894
aF0.48280927128480355
aF0.3762602297567351
aa(lp299
F0.1441309941250814
aF-0.028573757801913194
aF0.19292700932312096
aF-0.2000627411737006
aF0.7939462026501695
aaa(lp300
(lp301
F1.0831889771576304
aF-1.0180164685089024
aF-0.6794695855541864
aF0.2336358726512687
aa(lp302
F0.7985750174232062
aF0.13522503754994192
aF-0.034268637702462204
aF-0.31634549900334197
aa(lp303
F0.7455901086213411
aF-0.7313336645224282
aF-0.6381866942561212
aF-0.318477773265058
aa(lp304
F0.42518000748369095
aF0.03782455329058794
aF-0.8386361435797284
aF0.8101554102945544
aa(lp305
F-0.1106134947888105
aF0.7869647655606847
aF0.8153052581656556
aF-0.6504877763050507
aaaF91.30000000000001
tp306
a((lp307
(lp308
(lp309
F0.04151645566403746
aF-0.05498516926198404
aF0.5554401750686947
aF-0.929342910233601
aF-0.26679582504513694
aa(lp310
F-0.26558464422992656
aF-0.10735042793631995
aF0.002570997113094109
aF-0.1434716248047871
aF0.8566447715358378
aa(lp311
F-0.21669891458361212
aF-0.263443864578521
aF0.31107910236167274
aF-0.056936571907964986
aF0.48023271385365457
aa(lp312
F0.7388703943973197
aF0.7102910821976746
aF0.09461339791719856
aF0.8562579017333802
aF0.3651941000859981
aa(lp313
F-0.8706422528082591
aF-0.14686549042323802
aF-0.692837863874162
aF-0.006193857129844615
aF-0.8951314068278704
aa(lp314
F-0.2171093950781897
aF0.5870221675627624
aF-0.8749356606044609
aF0.009868826257185612
aF0.19263332654282653
aa(lp315
F0.714341362878397
aF0.906527309316677
aF0.04171741134517014
aF0.48280927128480355
aF0.38439755942453546
aa(lp316
F0.12494149677998123
aF-0.028573757801913194
aF0.2361542401591827
aF-0.2000627411737006
aF0.7939462026501695
aaa(lp317
(lp318
F1.0831889771576304
aF-1.0180164685089024
aF-0.6794695855541864
aF0.29432026909977516
aa(lp319
F0.8221177459117912
aF0.21204532996471853
aF0.00606433802852633
aF-0.3905371451637919
aa(lp320
F0.7425280883836409
aF-0.7313336645224282
aF-0.5641770866265953
aF-0.318477773265058
aa(lp321
F0.42518000748369095
aF-0.022360615450790954
aF-0.8386361435797284
aF0.8592792541555044
aa(lp322
F-0.1106134947888105
aF0.7869647655606847
aF0.7379919473385252
aF-0.6504877763050507
aaaF91.30000000000001
tp323
a((lp324
(lp325
(lp326
F0.04151645566403746
aF0.018513306201672693
aF0.5554401750686947
aF-0.929342910233601
aF-0.16747479690951497
aa(lp327
F-0.26558464422992656
aF-0.10735042793631995
aF0.002570997113094109
aF-0.05836146229859784
aF0.9546946549371416
aa(lp328
F-0.25757535170755513
aF-0.263443864578521
aF0.22668932944844183
aF-0.10274102118877337
aF0.48023271385365457
aa(lp329
F0.7388703943973197
aF0.7102910821976746
aF0.06829680248137131
aF0.8562579017333802
aF0.3258893574342656
aa(lp330
F-0.8706422528082591
aF-0.14686549042323802
aF-0.692837863874162
aF-0.006193857129844615
aF-0.8951314068278704
aa(lp331
F-0.2171093950781897
aF0.5870221675627624
aF-0.7923306545349627
aF0.08743638150528053
aF0.19263332654282653
aa(lp332
F0.6105386796999538
aF0.8418927565740466
aF0.04271707411000142
aF0.48280927128480355
aF0.3762602297567351
aa(lp333
F0.18218093929602094
aF0.04308261795218951
aF0.2361542401591827
aF-0.15803053933373015
aF0.7939462026501695
aaa(lp334
(lp335
F1.0831889771576304
aF-1.0180164685089024
aF-0.6794695855541864
aF0.2336358726512687
aa(lp336
F0.8221177459117912
aF0.21339486048085507
aF0.00606433802852633
aF-0.3905371451637919
aa(lp337
F0.6544734727090389
aF-0.7313336645224282
aF-0.5641770866265953
aF-0.30293632433223117
aa(lp338
F0.3704219408722316
aF0.03782455329058794
aF-0.8386361435797284
aF0.8592792541555044
aa(lp339
F-0.1106134947888105
aF0.7869647655606847
aF0.7591872399302029
aF-0.6504877763050507
aaaF91.30000000000001
tp340
a((lp341
(lp342
(lp343
F-0.03657051768736466
aF-0.05498516926198404
aF0.5253275694855789
aF-0.929342910233601
aF-0.1640247347327496
aa(lp344
F-0.34103195598821223
aF-0.10735042793631995
aF-0.04306778508430556
aF-0.09340121503557734
aF0.7665339346513833
aa(lp345
F-0.1813948118328877
aF-0.34556907297260825
aF0.5072150165938059
aF-0.12118912322009258
aF0.599486428898372
aa(lp346
F0.6732845308522831
aF0.6748160980776557
aF0.04884492944867045
aF0.8775210698703403
aF0.3309183666281338
aa(lp347
F-0.8706422528082591
aF-0.14686549042323802
aF-0.6268579317325493
aF0.0013958689577334704
aF-0.8951314068278704
aa(lp348
F-0.2823582089977043
aF0.6216898589733283
aF-0.9137846560276596
aF-0.09297158611904419
aF0.17590261410380376
aa(lp349
F0.8937497511809617
aF0.8764558647080001
aF0.09342850247552306
aF0.48280927128480355
aF0.41423215929295076
aa(lp350
F0.2299864071536119
aF0.046175805647930085
aF0.2361542401591827
aF-0.31367949389935773
aF0.7687098889876598
aaa(lp351
(lp352
F1.0156435787968385
aF-1.0180164685089024
aF-0.6794695855541864
aF0.2336358726512687
aa(lp353
F0.8025535747471941
aF0.15574334684013783
aF-0.034268637702462204
aF-0.3286967903380199
aa(lp354
F0.7455901086213411
aF-0.6897392004254371
aF-0.6228933495757891
aF-0.3458926710080749
aa(lp355
F0.4542782594377308
aF0.11207201782624938
aF-0.9458083100198442
aF0.8101554102945544
aa(lp356
F-0.1106134947888105
aF0.6563107299936731
aF0.7591872399302029
aF-0.692322872169675
aaaF91.30000000000001
tp357
a((lp358
(lp359
(lp360
F-0.03657051768736466
aF-0.05498516926198404
aF0.5253275694855789
aF-0.929342910233601
aF-0.1640247347327496
aa(lp361
F-0.34103195598821223
aF-0.10735042793631995
aF-0.05603124329266025
aF-0.09340121503557734
aF0.7665339346513833
aa(lp362
F-0.1813948118328877
aF-0.34556907297260825
aF0.5072150165938059
aF-0.12118912322009258
aF0.599486428898372
aa(lp363
F0.6732845308522831
aF0.6748160980776557
aF0.08576557599563568
aF0.8775210698703403
aF0.3309183666281338
aa(lp364
F-0.8706422528082591
aF-0.14686549042323802
aF-0.6268579317325493
aF0.0013958689577334704
aF-0.8951314068278704
aa(lp365
F-0.2823582089977043
aF0.6216898589733283
aF-0.9137846560276596
aF-0.09297158611904419
aF0.17590261410380376
aa(lp366
F0.8937497511809617
aF0.8764558647080001
aF0.09342850247552306
aF0.48280927128480355
aF0.41423215929295076
aa(lp367
F0.2299864071536119
aF0.046175805647930085
aF0.2361542401591827
aF-0.2549131567404227
aF0.7939462026501695
aaa(lp368
(lp369
F1.0156435787968385
aF-1.0180164685089024
aF-0.6794695855541864
aF0.2336358726512687
aa(lp370
F0.8025535747471941
aF0.15574334684013783
aF-0.034268637702462204
aF-0.3286967903380199
aa(lp371
F0.7455901086213411
aF-0.7775270705119188
aF-0.6228933495757891
aF-0.3458926710080749
aa(lp372
F0.4542782594377308
aF0.03782455329058794
aF-0.9180975331647729
aF0.8101554102945544
aa(lp373
F-0.1106134947888105
aF0.6903433080811276
aF0.7591872399302029
aF-0.692322872169675
aaaF91.30000000000001
tp374
a((lp375
(lp376
(lp377
F0.05816606630273283
aF-0.007296790081877169
aF0.5554401750686947
aF-0.929342910233601
aF-0.16747479690951497
aa(lp378
F-0.26558464422992656
aF-0.14431591859608334
aF0.002570997113094109
aF-0.05836146229859784
aF0.8566447715358378
aa(lp379
F-0.21669891458361212
aF-0.263443864578521
aF0.40902154536269647
aF-0.056936571907964986
aF0.3902155194030933
aa(lp380
F0.7956399528793582
aF0.7102910821976746
aF0.09461339791719856
aF0.8562579017333802
aF0.3258893574342656
aa(lp381
F-0.9399416297113335
aF-0.14686549042323802
aF-0.6947583266987926
aF-0.049816183888770765
aF-0.8951314068278704
aa(lp382
F-0.23225925315447787
aF0.5870221675627624
aF-0.7923306545349627
aF-0.04351251321103676
aF0.19263332654282653
aa(lp383
F0.714341362878397
aF0.906527309316677
aF0.04271707411000142
aF0.48280927128480355
aF0.3762602297567351
aa(lp384
F0.18218093929602094
aF-0.028573757801913194
aF0.2361542401591827
aF-0.2000627411737006
aF0.7939462026501695
aaa(lp385
(lp386
F1.0831889771576304
aF-1.0180164685089024
aF-0.6794695855541864
aF0.2336358726512687
aa(lp387
F0.8221177459117912
aF0.21204532996471853
aF0.00606433802852633
aF-0.3905371451637919
aa(lp388
F0.7425280883836409
aF-0.7313336645224282
aF-0.47436659565529044
aF-0.318477773265058
aa(lp389
F0.42518000748369095
aF0.020190510311554236
aF-0.8386361435797284
aF0.8592792541555044
aa(lp390
F-0.1106134947888105
aF0.7869647655606847
aF0.7379919473385252
aF-0.6504877763050507
aaaF91.30000000000001
tp391
a((lp392
(lp393
(lp394
F0.057124230474114995
aF-0.05498516926198404
aF0.5690315162187412
aF-0.929342910233601
aF-0.16747479690951497
aa(lp395
F-0.26558464422992656
aF-0.10735042793631995
aF-0.0725236110435536
aF-0.05836146229859784
aF0.8566447715358378
aa(lp396
F-0.2675850378031022
aF-0.3935884485348299
aF0.38808404143617825
aF-0.010092160055524657
aF0.5387675063385138
aa(lp397
F0.7388703943973197
aF0.7102910821976746
aF0.06829680248137131
aF0.8775210698703403
aF0.2627395146951576
aa(lp398
F-0.9178152697259351
aF-0.14686549042323802
aF-0.7690894242867502
aF0.023817177063577933
aF-0.8670631764585359
aa(lp399
F-0.2171093950781897
aF0.5870221675627624
aF-0.8705430092407515
aF0.025357625961980632
aF0.282558355409642
aa(lp400
F0.8117471199413164
aF0.906527309316677
aF-0.09450904704424894
aF0.48280927128480355
aF0.3614372088615206
aa(lp401
F0.1441309941250814
aF-0.028573757801913194
aF0.2361542401591827
aF-0.2000627411737006
aF0.7939462026501695
aaa(lp402
(lp403
F1.0831889771576304
aF-1.0180164685089024
aF-0.6794695855541864
aF0.2336358726512687
aa(lp404
F0.7985750174232062
aF0.13522503754994192
aF-0.034268637702462204
aF-0.31634549900334197
aa(lp405
F0.7455901086213411
aF-0.7313336645224282
aF-0.6381866942561212
aF-0.37360102484746127
aa(lp406
F0.42518000748369095
aF0.03782455329058794
aF-0.8386361435797284
aF0.8101554102945544
aa(lp407
F-0.1106134947888105
aF0.7869647655606847
aF0.8153052581656556
aF-0.6504877763050507
aaaF91.30000000000001
tp408
a((lp409
(lp410
(lp411
F-0.03657051768736466
aF-0.05498516926198404
aF0.5253275694855789
aF-0.929342910233601
aF-0.1640247347327496
aa(lp412
F-0.34220112744494247
aF-0.10735042793631995
aF-0.09315164580792666
aF-0.09340121503557734
aF0.8134560236601907
aa(lp413
F-0.1813948118328877
aF-0.34556907297260825
aF0.5072150165938059
aF-0.12118912322009258
aF0.599486428898372
aa(lp414
F0.6732845308522831
aF0.6873554316076013
aF0.08576557599563568
aF0.8775210698703403
aF0.3309183666281338
aa(lp415
F-0.8947231113289873
aF-0.14686549042323802
aF-0.6268579317325493
aF0.0013958689577334704
aF-0.8951314068278704
aa(lp416
F-0.2823582089977043
aF0.6216898589733283
aF-0.9137846560276596
aF-0.09297158611904419
aF0.17590261410380376
aa(lp417
F0.8937497511809617
aF0.847950781797988
aF0.12333430216065669
aF0.48280927128480355
aF0.41423215929295076
aa(lp418
F0.2299864071536119
aF0.046175805647930085
aF0.2361542401591827
aF-0.31367949389935773
aF0.7939462026501695
aaa(lp419
(lp420
F1.0156435787968385
aF-1.0180164685089024
aF-0.6794695855541864
aF0.2336358726512687
aa(lp421
F0.8025535747471941
aF0.15574334684013783
aF-0.034268637702462204
aF-0.3286967903380199
aa(lp422
F0.7455901086213411
aF-0.6897392004254371
aF-0.6228933495757891
aF-0.3458926710080749
aa(lp423
F0.4542782594377308
aF0.03782455329058794
aF-0.9180975331647729
aF0.8204218904344915
aa(lp424
F-0.1106134947888105
aF0.6903433080811276
aF0.7591872399302029
aF-0.692322872169675
aaaF91.25000000000001
tp425
a((lp426
(lp427
(lp428
F-0.03657051768736466
aF-0.05498516926198404
aF0.5253275694855789
aF-0.929342910233601
aF-0.1640247347327496
aa(lp429
F-0.34103195598821223
aF-0.20182275463353516
aF-0.04306778508430556
aF-0.09340121503557734
aF0.7665339346513833
aa(lp430
F-0.1813948118328877
aF-0.3489724522499566
aF0.5072150165938059
aF-0.12118912322009258
aF0.599486428898372
aa(lp431
F0.6732845308522831
aF0.6748160980776557
aF0.08576557599563568
aF0.9359954983590728
aF0.3309183666281338
aa(lp432
F-0.8706422528082591
aF-0.14686549042323802
aF-0.6268579317325493
aF0.0013958689577334704
aF-0.8951314068278704
aa(lp433
F-0.2823582089977043
aF0.6216898589733283
aF-0.8990461280022204
aF-0.09297158611904419
aF0.17590261410380376
aa(lp434
F0.8937497511809617
aF0.9209344798682199
aF0.09342850247552306
aF0.48280927128480355
aF0.41423215929295076
aa(lp435
F0.2299864071536119
aF0.046175805647930085
aF0.2361542401591827
aF-0.31367949389935773
aF0.7939462026501695
aaa(lp436
(lp437
F1.0156435787968385
aF-1.0180164685089024
aF-0.6794695855541864
aF0.2336358726512687
aa(lp438
F0.8288168987538784
aF0.15574334684013783
aF-0.034268637702462204
aF-0.3286967903380199
aa(lp439
F0.7455901086213411
aF-0.6897392004254371
aF-0.6228933495757891
aF-0.3458926710080749
aa(lp440
F0.4542782594377308
aF0.03782455329058794
aF-0.9180975331647729
aF0.8101554102945544
aa(lp441
F-0.1106134947888105
aF0.6903433080811276
aF0.7591872399302029
aF-0.692322872169675
aaaF91.25000000000001
tp442
a((lp443
(lp444
(lp445
F0.07175122536353506
aF-0.05498516926198404
aF0.5253275694855789
aF-0.929342910233601
aF-0.2526549655513918
aa(lp446
F-0.26558464422992656
aF-0.10735042793631995
aF-0.028289974094729248
aF-0.09340121503557734
aF0.8244235537939025
aa(lp447
F-0.2675850378031022
aF-0.27061763900962005
aF0.45905876366922793
aF-0.12118912322009258
aF0.6854729652572279
aa(lp448
F0.6732845308522831
aF0.7102910821976746
aF-0.006844482740945693
aF0.8775210698703403
aF0.3309183666281338
aa(lp449
F-0.8706422528082591
aF-0.14686549042323802
aF-0.6977570362110328
aF0.0013958689577334704
aF-0.8951314068278704
aa(lp450
F-0.2354530430627676
aF0.6216898589733283
aF-0.9137846560276596
aF-0.05948650230212534
aF0.266769984792602
aa(lp451
F0.8937497511809617
aF0.9661783797367681
aF-0.019739595100579405
aF0.48280927128480355
aF0.41423215929295076
aa(lp452
F0.2299864071536119
aF0.06381875875315243
aF0.2875587562744337
aF-0.18599165388063024
aF0.7939462026501695
aaa(lp453
(lp454
F1.0831889771576304
aF-1.0180164685089024
aF-0.6794695855541864
aF0.2336358726512687
aa(lp455
F0.8025535747471941
aF0.15574334684013783
aF-0.034268637702462204
aF-0.3286967903380199
aa(lp456
F0.7455901086213411
aF-0.8395533879564037
aF-0.6228933495757891
aF-0.318477773265058
aa(lp457
F0.42518000748369095
aF0.1211824531618361
aF-0.8386361435797284
aF0.8101554102945544
aa(lp458
F-0.1106134947888105
aF0.6903433080811276
aF0.7591872399302029
aF-0.692322872169675
aaaF91.25000000000001
tp459
a((lp460
(lp461
(lp462
F0.058967391313517914
aF-0.05498516926198404
aF0.5253275694855789
aF-0.929342910233601
aF-0.18040475153735785
aa(lp463
F-0.26558464422992656
aF-0.10735042793631995
aF-0.028289974094729248
aF-0.09340121503557734
aF0.8849171041533586
aa(lp464
F-0.2675850378031022
aF-0.34556907297260825
aF0.45905876366922793
aF-0.13103784024996878
aF0.599486428898372
aa(lp465
F0.6732845308522831
aF0.7102910821976746
aF-0.006844482740945693
aF0.8775210698703403
aF0.3309183666281338
aa(lp466
F-0.8706422528082591
aF-0.14686549042323802
aF-0.6268579317325493
aF0.0013958689577334704
aF-0.8951314068278704
aa(lp467
F-0.1747871769415337
aF0.6216898589733283
aF-0.9137846560276596
aF-0.05948650230212534
aF0.17590261410380376
aa(lp468
F0.8937497511809617
aF1.0609144309768501
aF-0.019739595100579405
aF0.48280927128480355
aF0.41423215929295076
aa(lp469
F0.2299864071536119
aF0.06381875875315243
aF0.2361542401591827
aF-0.25579470611816063
aF0.7939462026501695
aaa(lp470
(lp471
F1.0831889771576304
aF-1.0180164685089024
aF-0.6794695855541864
aF0.2336358726512687
aa(lp472
F0.8025535747471941
aF0.11888811634253704
aF-0.034268637702462204
aF-0.3286967903380199
aa(lp473
F0.7455901086213411
aF-0.7692557841504156
aF-0.6228933495757891
aF-0.318477773265058
aa(lp474
F0.42518000748369095
aF0.03782455329058794
aF-0.8386361435797284
aF0.8101554102945544
aa(lp475
F-0.1106134947888105
aF0.6903433080811276
aF0.7591872399302029
aF-0.692322872169675
aaaF91.25000000000001
tp476
a((lp477
(lp478
(lp479
F0.058967391313517914
aF-0.05498516926198404
aF0.5253275694855789
aF-0.929342910233601
aF-0.2526549655513918
aa(lp480
F-0.26558464422992656
aF-0.10735042793631995
aF0.018983369788358483
aF-0.09340121503557734
aF0.8566447715358378
aa(lp481
F-0.23724803453244647
aF-0.34556907297260825
aF0.45905876366922793
aF-0.12118912322009258
aF0.599486428898372
aa(lp482
F0.6732845308522831
aF0.7102910821976746
aF-0.006844482740945693
aF0.8775210698703403
aF0.3309183666281338
aa(lp483
F-0.8706422528082591
aF-0.14686549042323802
aF-0.6268579317325493
aF0.0013958689577334704
aF-0.8951314068278704
aa(lp484
F-0.2354530430627676
aF0.6216898589733283
aF-0.9137846560276596
aF-0.05948650230212534
aF0.17590261410380376
aa(lp485
F0.8937497511809617
aF0.9661783797367681
aF-0.019739595100579405
aF0.48280927128480355
aF0.41423215929295076
aa(lp486
F0.2299864071536119
aF0.10904256546280316
aF0.2361542401591827
aF-0.25579470611816063
aF0.7939462026501695
aaa(lp487
(lp488
F1.0831889771576304
aF-1.0180164685089024
aF-0.6794695855541864
aF0.31688800619578206
aa(lp489
F0.8025535747471941
aF0.15574334684013783
aF-0.034268637702462204
aF-0.3286967903380199
aa(lp490
F0.7455901086213411
aF-0.7692557841504156
aF-0.6228933495757891
aF-0.318477773265058
aa(lp491
F0.42518000748369095
aF0.03782455329058794
aF-0.8386361435797284
aF0.8101554102945544
aa(lp492
F-0.129249641486585
aF0.6388424014989088
aF0.7591872399302029
aF-0.692322872169675
aaaF91.25000000000001
tp493
a((lp494
(lp495
(lp496
F0.04151645566403746
aF-0.05498516926198404
aF0.5690315162187412
aF-0.929342910233601
aF-0.16747479690951497
aa(lp497
F-0.26558464422992656
aF-0.09042011017683553
aF0.006233886039797165
aF-0.05836146229859784
aF0.8566447715358378
aa(lp498
F-0.3019111854228502
aF-0.34556907297260825
aF0.38808404143617825
aF-0.056936571907964986
aF0.5387675063385138
aa(lp499
F0.7388703943973197
aF0.7102910821976746
aF0.06829680248137131
aF0.8043944919875917
aF0.2627395146951576
aa(lp500
F-0.8706422528082591
aF-0.14686549042323802
aF-0.692837863874162
aF0.023817177063577933
aF-0.8670631764585359
aa(lp501
F-0.2171093950781897
aF0.5870221675627624
aF-0.8705430092407515
aF0.025357625961980632
aF0.282558355409642
aa(lp502
F0.8117471199413164
aF0.906527309316677
aF-0.019739595100579405
aF0.48280927128480355
aF0.37776569074896743
aa(lp503
F0.1441309941250814
aF-0.028573757801913194
aF0.2361542401591827
aF-0.2000627411737006
aF0.7939462026501695
aaa(lp504
(lp505
F1.0831889771576304
aF-1.0180164685089024
aF-0.6794695855541864
aF0.2336358726512687
aa(lp506
F0.7985750174232062
aF0.13522503754994192
aF-0.034268637702462204
aF-0.31634549900334197
aa(lp507
F0.7455901086213411
aF-0.7313336645224282
aF-0.5641770866265953
aF-0.3515677030600552
aa(lp508
F0.42518000748369095
aF0.03782455329058794
aF-0.8386361435797284
aF0.8101554102945544
aa(lp509
F-0.1106134947888105
aF0.7869647655606847
aF0.7591872399302029
aF-0.6504877763050507
aaaF91.25000000000001
tp510
a((lp511
(lp512
(lp513
F-0.053527471963820024
aF-0.05498516926198404
aF0.5253275694855789
aF-0.929342910233601
aF-0.1640247347327496
aa(lp514
F-0.34103195598821223
aF-0.10735042793631995
aF-0.04306778508430556
aF-0.09340121503557734
aF0.7665339346513833
aa(lp515
F-0.1813948118328877
aF-0.34556907297260825
aF0.5072150165938059
aF-0.12118912322009258
aF0.599486428898372
aa(lp516
F0.6732845308522831
aF0.6748160980776557
aF0.08576557599563568
aF0.8775210698703403
aF0.3309183666281338
aa(lp517
F-0.8706422528082591
aF-0.14686549042323802
aF-0.6268579317325493
aF0.0013958689577334704
aF-0.8951314068278704
aa(lp518
F-0.2823582089977043
aF0.6216898589733283
aF-0.9137846560276596
aF-0.09297158611904419
aF0.17590261410380376
aa(lp519
F0.8937497511809617
aF0.8764558647080001
aF0.09342850247552306
aF0.48280927128480355
aF0.41423215929295076
aa(lp520
F0.2299864071536119
aF0.046175805647930085
aF0.2141171060266519
aF-0.31367949389935773
aF0.7939462026501695
aaa(lp521
(lp522
F1.0156435787968385
aF-1.0180164685089024
aF-0.6794695855541864
aF0.2336358726512687
aa(lp523
F0.8025535747471941
aF0.15773912858522182
aF-0.034268637702462204
aF-0.3286967903380199
aa(lp524
F0.6824963870111693
aF-0.6897392004254371
aF-0.6228933495757891
aF-0.3458926710080749
aa(lp525
F0.4542782594377308
aF0.03782455329058794
aF-0.9180975331647729
aF0.8101554102945544
aa(lp526
F-0.1106134947888105
aF0.6903433080811276
aF0.7591872399302029
aF-0.6404780365390572
aaaF91.25000000000001
tp527
a((lp528
(lp529
(lp530
F0.018305670623992132
aF-0.001668821632506333
aF0.5065491833808293
aF-0.9161025130076589
aF-0.16747479690951497
aa(lp531
F-0.3697836302277351
aF0.015085641038582724
aF0.022721852287614953
aF-0.17167662174800402
aF0.8566447715358378
aa(lp532
F-0.2675850378031022
aF-0.397281455103394
aF0.4072271081824371
aF0.15496513359528155
aF0.44228601242882193
aa(lp533
F0.6515220258974059
aF0.715605831880394
aF-0.006844482740945693
aF0.8775210698703403
aF0.3309183666281338
aa(lp534
F-0.9364651938053954
aF-0.08581170014793917
aF-0.5594669933117531
aF-0.1153941687107859
aF-0.8679352291765196
aa(lp535
F-0.29919888378248977
aF0.48704988974462554
aF-0.8705430092407515
aF0.03478586846933214
aF0.23436887371930748
aa(lp536
F0.8825299898322715
aF0.8795340332877917
aF0.15073742334261003
aF0.5347512131370931
aF0.43888090288769765
aa(lp537
F0.18055275326171663
aF0.0016703379581204797
aF0.2361542401591827
aF-0.21634216269053513
aF0.7743922223459243
aaa(lp538
(lp539
F1.0028738564161332
aF-1.1229786581151764
aF-0.8483559812281681
aF0.3314426039987567
aa(lp540
F0.8025535747471941
aF0.15574334684013783
aF-0.034268637702462204
aF-0.31634549900334197
aa(lp541
F0.6729669489435856
aF-0.737875265303308
aF-0.5641770866265953
aF-0.30301075696406066
aa(lp542
F0.49396829103491197
aF0.03782455329058794
aF-0.8386361435797284
aF0.878835320573144
aa(lp543
F-0.1106134947888105
aF0.7720492202394783
aF0.7591872399302029
aF-0.6418822672610943
aaaF91.25000000000001
tp544
a((lp545
(lp546
(lp547
F0.058967391313517914
aF-0.05498516926198404
aF0.5253275694855789
aF-0.929342910233601
aF-0.2526549655513918
aa(lp548
F-0.26558464422992656
aF-0.032832169419204374
aF-0.028289974094729248
aF-0.13709650516824773
aF0.8566447715358378
aa(lp549
F-0.23724803453244647
aF-0.34556907297260825
aF0.45905876366922793
aF-0.024042669477062725
aF0.599486428898372
aa(lp550
F0.7501415446716965
aF0.7518224098687986
aF0.017375862240640225
aF0.8775210698703403
aF0.3309183666281338
aa(lp551
F-0.8706422528082591
aF-0.14686549042323802
aF-0.6268579317325493
aF0.0013958689577334704
aF-0.8951314068278704
aa(lp552
F-0.2354530430627676
aF0.6965281999594554
aF-0.9137846560276596
aF-0.06396602158035786
aF0.17590261410380376
aa(lp553
F0.8937497511809617
aF0.866963337547465
aF-0.019739595100579405
aF0.48280927128480355
aF0.4593342499729564
aa(lp554
F0.22907697615168654
aF0.06381875875315243
aF0.20180838207811777
aF-0.25579470611816063
aF0.7939462026501695
aaa(lp555
(lp556
F1.0831889771576304
aF-1.0180164685089024
aF-0.6794695855541864
aF0.2336358726512687
aa(lp557
F0.8025535747471941
aF0.18242685296570052
aF0.06205205376095793
aF-0.3901367511124691
aa(lp558
F0.7455901086213411
aF-0.7692557841504156
aF-0.7011400075173722
aF-0.318477773265058
aa(lp559
F0.42518000748369095
aF-0.02174080186572465
aF-0.8386361435797284
aF0.8101554102945544
aa(lp560
F-0.1106134947888105
aF0.6903433080811276
aF0.7591872399302029
aF-0.692322872169675
aaaF91.25000000000001
tp561
a((lp562
(lp563
(lp564
F0.057124230474114995
aF-0.05498516926198404
aF0.5690315162187412
aF-0.929342910233601
aF-0.16747479690951497
aa(lp565
F-0.26558464422992656
aF-0.10735042793631995
aF-0.0725236110435536
aF-0.05836146229859784
aF0.8566447715358378
aa(lp566
F-0.2675850378031022
aF-0.3935884485348299
aF0.38808404143617825
aF-0.010092160055524657
aF0.5387675063385138
aa(lp567
F0.7388703943973197
aF0.7102910821976746
aF0.06829680248137131
aF0.8775210698703403
aF0.3004282021661193
aa(lp568
F-0.8706422528082591
aF-0.14686549042323802
aF-0.692837863874162
aF0.023817177063577933
aF-0.8670631764585359
aa(lp569
F-0.2171093950781897
aF0.5870221675627624
aF-0.8705430092407515
aF0.025357625961980632
aF0.282558355409642
aa(lp570
F0.8117471199413164
aF0.906527309316677
aF-0.09450904704424894
aF0.4999557300715832
aF0.3762602297567351
aa(lp571
F0.1441309941250814
aF-0.028573757801913194
aF0.2361542401591827
aF-0.2000627411737006
aF0.7939462026501695
aaa(lp572
(lp573
F1.0831889771576304
aF-1.0180164685089024
aF-0.6794695855541864
aF0.2336358726512687
aa(lp574
F0.7985750174232062
aF0.13522503754994192
aF-0.034268637702462204
aF-0.31634549900334197
aa(lp575
F0.7455901086213411
aF-0.7313336645224282
aF-0.6381866942561212
aF-0.318477773265058
aa(lp576
F0.42518000748369095
aF0.03782455329058794
aF-0.8386361435797284
aF0.8101554102945544
aa(lp577
F-0.1106134947888105
aF0.7869647655606847
aF0.7797978496280283
aF-0.6504877763050507
aaaF91.25000000000001
tp578
a((lp579
(lp580
(lp581
F0.058967391313517914
aF-0.05498516926198404
aF0.5253275694855789
aF-0.929342910233601
aF-0.2526549655513918
aa(lp582
F-0.26558464422992656
aF-0.032832169419204374
aF-0.028289974094729248
aF-0.0445117146412361
aF0.8566447715358378
aa(lp583
F-0.23724803453244647
aF-0.34556907297260825
aF0.45905876366922793
aF-0.11581574394013604
aF0.599486428898372
aa(lp584
F0.7501415446716965
aF0.7518224098687986
aF0.017375862240640225
aF0.8940094478035826
aF0.3309183666281338
aa(lp585
F-0.8706422528082591
aF-0.14686549042323802
aF-0.6268579317325493
aF0.0013958689577334704
aF-0.8951314068278704
aa(lp586
F-0.2354530430627676
aF0.6965281999594554
aF-0.9137846560276596
aF-0.06396602158035786
aF0.17590261410380376
aa(lp587
F0.8937497511809617
aF0.866963337547465
aF-0.019739595100579405
aF0.48280927128480355
aF0.37901690876108546
aa(lp588
F0.22907697615168654
aF0.06381875875315243
aF0.20180838207811777
aF-0.25579470611816063
aF0.7939462026501695
aaa(lp589
(lp590
F1.0831889771576304
aF-1.0180164685089024
aF-0.6794695855541864
aF0.2336358726512687
aa(lp591
F0.8025535747471941
aF0.18242685296570052
aF0.06205205376095793
aF-0.4281652011551466
aa(lp592
F0.7455901086213411
aF-0.7692557841504156
aF-0.7011400075173722
aF-0.318477773265058
aa(lp593
F0.42518000748369095
aF-0.02174080186572465
aF-0.8386361435797284
aF0.8101554102945544
aa(lp594
F-0.1106134947888105
aF0.6903433080811276
aF0.7591872399302029
aF-0.692322872169675
aaaF91.25000000000001
tp595
a((lp596
(lp597
(lp598
F0.07620833245291077
aF-0.05498516926198404
aF0.5690315162187412
aF-0.929342910233601
aF-0.16747479690951497
aa(lp599
F-0.26558464422992656
aF-0.10735042793631995
aF0.002570997113094109
aF-0.05836146229859784
aF0.8566447715358378
aa(lp600
F-0.2675850378031022
aF-0.34556907297260825
aF0.33142163047822415
aF-0.13239541864537852
aF0.5387675063385138
aa(lp601
F0.7388703943973197
aF0.7102910821976746
aF0.06829680248137131
aF0.8775210698703403
aF0.2627395146951576
aa(lp602
F-0.8706422528082591
aF-0.14686549042323802
aF-0.692837863874162
aF-0.03099733737190762
aF-0.8951314068278704
aa(lp603
F-0.2171093950781897
aF0.5995218239625276
aF-0.8747451941722189
aF0.025357625961980632
aF0.19263332654282653
aa(lp604
F0.8117471199413164
aF0.906527309316677
aF-0.03480359268723625
aF0.48280927128480355
aF0.3762602297567351
aa(lp605
F0.24373280613248222
aF-0.03688621832128497
aF0.2361542401591827
aF-0.15055053483846362
aF0.8442158247618655
aaa(lp606
(lp607
F1.0831889771576304
aF-1.0180164685089024
aF-0.6794695855541864
aF0.3111476258018386
aa(lp608
F0.7985750174232062
aF0.13522503754994192
aF-0.034268637702462204
aF-0.31634549900334197
aa(lp609
F0.7455901086213411
aF-0.7313336645224282
aF-0.5641770866265953
aF-0.318477773265058
aa(lp610
F0.42518000748369095
aF0.03782455329058794
aF-0.8386361435797284
aF0.7927617678475712
aa(lp611
F-0.11895651791734739
aF0.8078105076482163
aF0.7591872399302029
aF-0.6504877763050507
aaaF91.25000000000001
tp612
a((lp613
(lp614
(lp615
F0.07620833245291077
aF-0.015755851623426312
aF0.5690315162187412
aF-0.929342910233601
aF-0.16747479690951497
aa(lp616
F-0.26558464422992656
aF-0.10735042793631995
aF0.002570997113094109
aF-0.05836146229859784
aF0.9047535025494516
aa(lp617
F-0.22159436853724504
aF-0.34556907297260825
aF0.33142163047822415
aF-0.13239541864537852
aF0.5387675063385138
aa(lp618
F0.6892307486505629
aF0.7102910821976746
aF0.06829680248137131
aF0.8775210698703403
aF0.2627395146951576
aa(lp619
F-0.8706422528082591
aF-0.14686549042323802
aF-0.692837863874162
aF-0.03099733737190762
aF-0.8951314068278704
aa(lp620
F-0.2171093950781897
aF0.5870221675627624
aF-0.8747451941722189
aF0.025357625961980632
aF0.19263332654282653
aa(lp621
F0.8117471199413164
aF0.906527309316677
aF-0.03480359268723625
aF0.48280927128480355
aF0.3762602297567351
aa(lp622
F0.24373280613248222
aF-0.028573757801913194
aF0.2361542401591827
aF-0.15055053483846362
aF0.8442158247618655
aaa(lp623
(lp624
F1.0831889771576304
aF-0.9980701874021998
aF-0.6794695855541864
aF0.36061277501021416
aa(lp625
F0.7985750174232062
aF0.13522503754994192
aF-0.034268637702462204
aF-0.31634549900334197
aa(lp626
F0.7455901086213411
aF-0.7313336645224282
aF-0.5641770866265953
aF-0.318477773265058
aa(lp627
F0.42518000748369095
aF0.03782455329058794
aF-0.9152444037686162
aF0.8101554102945544
aa(lp628
F-0.11895651791734739
aF0.7869647655606847
aF0.829549805292394
aF-0.6504877763050507
aaaF91.25000000000001
tp629
a((lp630
(lp631
(lp632
F0.018305670623992132
aF-0.001668821632506333
aF0.5065491833808293
aF-0.9161025130076589
aF-0.16747479690951497
aa(lp633
F-0.3697836302277351
aF0.015085641038582724
aF0.022721852287614953
aF-0.17167662174800402
aF0.8858281328062925
aa(lp634
F-0.2675850378031022
aF-0.397281455103394
aF0.4072271081824371
aF0.15496513359528155
aF0.44228601242882193
aa(lp635
F0.6515220258974059
aF0.715605831880394
aF-0.006844482740945693
aF0.8775210698703403
aF0.3309183666281338
aa(lp636
F-0.9364651938053954
aF-0.08581170014793917
aF-0.5594669933117531
aF-0.060558871399766304
aF-0.8679352291765196
aa(lp637
F-0.2171093950781897
aF0.48704988974462554
aF-0.8705430092407515
aF0.03478586846933214
aF0.23436887371930748
aa(lp638
F0.8825299898322715
aF0.8795340332877917
aF0.2006555139812134
aF0.5347512131370931
aF0.43888090288769765
aa(lp639
F0.18055275326171663
aF-0.029160170510635533
aF0.2361542401591827
aF-0.181235752370047
aF0.7743922223459243
aaa(lp640
(lp641
F1.0028738564161332
aF-1.1229786581151764
aF-0.8483559812281681
aF0.3314426039987567
aa(lp642
F0.8025535747471941
aF0.15574334684013783
aF-0.034268637702462204
aF-0.31634549900334197
aa(lp643
F0.6729669489435856
aF-0.7338816253303522
aF-0.5641770866265953
aF-0.22368255879158122
aa(lp644
F0.4652722892183896
aF0.11547817178598677
aF-0.8386361435797284
aF0.878835320573144
aa(lp645
F-0.1106134947888105
aF0.7720492202394783
aF0.7591872399302029
aF-0.6418822672610943
aaaF91.25000000000001
tp646
a((lp647
(lp648
(lp649
F0.058967391313517914
aF-0.05498516926198404
aF0.5253275694855789
aF-0.929342910233601
aF-0.2526549655513918
aa(lp650
F-0.26558464422992656
aF-0.032832169419204374
aF-0.028289974094729248
aF-0.05897407455253714
aF0.8566447715358378
aa(lp651
F-0.23724803453244647
aF-0.34556907297260825
aF0.5370507380282397
aF-0.11581574394013604
aF0.599486428898372
aa(lp652
F0.7501415446716965
aF0.7518224098687986
aF0.024862305498806945
aF0.8775210698703403
aF0.3309183666281338
aa(lp653
F-0.8706422528082591
aF-0.14686549042323802
aF-0.6268579317325493
aF0.0013958689577334704
aF-0.8951314068278704
aa(lp654
F-0.2354530430627676
aF0.6043655543176221
aF-0.9137846560276596
aF-0.06396602158035786
aF0.17590261410380376
aa(lp655
F0.8937497511809617
aF0.866963337547465
aF-0.019739595100579405
aF0.48280927128480355
aF0.41423215929295076
aa(lp656
F0.22907697615168654
aF0.06381875875315243
aF0.20180838207811777
aF-0.25579470611816063
aF0.7939462026501695
aaa(lp657
(lp658
F1.0831889771576304
aF-1.0144323970360403
aF-0.6794695855541864
aF0.2336358726512687
aa(lp659
F0.8025535747471941
aF0.18242685296570052
aF0.06205205376095793
aF-0.3286967903380199
aa(lp660
F0.7455901086213411
aF-0.7692557841504156
aF-0.7011400075173722
aF-0.24761120443309176
aa(lp661
F0.42518000748369095
aF-0.02174080186572465
aF-0.8386361435797284
aF0.8101554102945544
aa(lp662
F-0.1106134947888105
aF0.6903433080811276
aF0.7591872399302029
aF-0.692322872169675
aaaF91.25000000000001
tp663
a((lp664
(lp665
(lp666
F0.07711968949254104
aF-0.05498516926198404
aF0.5253275694855789
aF-0.929342910233601
aF-0.2526549655513918
aa(lp667
F-0.26558464422992656
aF-0.15608850383834044
aF-0.028289974094729248
aF-0.09340121503557734
aF0.8566447715358378
aa(lp668
F-0.23724803453244647
aF-0.34556907297260825
aF0.45905876366922793
aF-0.12118912322009258
aF0.599486428898372
aa(lp669
F0.6732845308522831
aF0.7045143464419013
aF-0.006844482740945693
aF0.8775210698703403
aF0.2652517364450698
aa(lp670
F-0.8706422528082591
aF-0.14686549042323802
aF-0.6268579317325493
aF0.0013958689577334704
aF-0.8951314068278704
aa(lp671
F-0.18149061870671776
aF0.6216898589733283
aF-0.9590113705054113
aF-0.04770928059582925
aF0.17590261410380376
aa(lp672
F0.8937497511809617
aF0.9661783797367681
aF-0.019739595100579405
aF0.48280927128480355
aF0.41423215929295076
aa(lp673
F0.2299864071536119
aF0.06381875875315243
aF0.20981843707896852
aF-0.22856292555559926
aF0.7939462026501695
aaa(lp674
(lp675
F1.0831889771576304
aF-1.1063360555455504
aF-0.6794695855541864
aF0.2336358726512687
aa(lp676
F0.8025535747471941
aF0.15574334684013783
aF-0.034268637702462204
aF-0.3286967903380199
aa(lp677
F0.7455901086213411
aF-0.7692557841504156
aF-0.6228933495757891
aF-0.318477773265058
aa(lp678
F0.42518000748369095
aF-0.03872390602083309
aF-0.8386361435797284
aF0.8101554102945544
aa(lp679
F-0.1106134947888105
aF0.6903433080811276
aF0.7591872399302029
aF-0.692322872169675
aaaF91.25000000000001
tp680
a((lp681
(lp682
(lp683
F0.04151645566403746
aF-0.001668821632506333
aF0.5253275694855789
aF-0.9267414694926897
aF-0.16747479690951497
aa(lp684
F-0.3910576543907081
aF0.015085641038582724
aF0.05980870934282431
aF-0.09340121503557734
aF0.9259098357962501
aa(lp685
F-0.2675850378031022
aF-0.397281455103394
aF0.3798508814187435
aF0.15496513359528155
aF0.35324349137612576
aa(lp686
F0.6627421080429868
aF0.715605831880394
aF-0.006844482740945693
aF0.8775210698703403
aF0.3309183666281338
aa(lp687
F-0.9334142956875177
aF-0.08581170014793917
aF-0.6268579317325493
aF0.0013958689577334704
aF-0.7976096932785386
aa(lp688
F-0.2171093950781897
aF0.5315159479461679
aF-0.8705430092407515
aF-0.012006073845828684
aF0.19263332654282653
aa(lp689
F0.945380361718561
aF1.0216203436662064
aF0.0049859393615870745
aF0.4854120108143508
aF0.41496178500760267
aa(lp690
F0.1441309941250814
aF0.06458948873351233
aF0.2361542401591827
aF-0.21634216269053513
aF0.7939462026501695
aaa(lp691
(lp692
F1.0028738564161332
aF-1.054745879835037
aF-0.8483559812281681
aF0.14602265279913978
aa(lp693
F0.8025535747471941
aF0.15574334684013783
aF-0.034268637702462204
aF-0.31634549900334197
aa(lp694
F0.6729669489435856
aF-0.7692557841504156
aF-0.5641770866265953
aF-0.2540572417768425
aa(lp695
F0.42518000748369095
aF0.03782455329058794
aF-0.8386361435797284
aF0.878835320573144
aa(lp696
F-0.14470835580246666
aF0.7720492202394783
aF0.7591872399302029
aF-0.6926239785266249
aaaF91.25000000000001
tp697
a((lp698
(lp699
(lp700
F0.04151645566403746
aF0.009468336215523579
aF0.5253275694855789
aF-0.9267414694926897
aF-0.16747479690951497
aa(lp701
F-0.3551803120731912
aF0.015085641038582724
aF0.05980870934282431
aF-0.09340121503557734
aF0.8566447715358378
aa(lp702
F-0.2675850378031022
aF-0.397281455103394
aF0.38808404143617825
aF0.07372714082729934
aF0.35324349137612576
aa(lp703
F0.6515220258974059
aF0.715605831880394
aF-0.006844482740945693
aF0.8775210698703403
aF0.3309183666281338
aa(lp704
F-0.9915246617658652
aF-0.08581170014793917
aF-0.6268579317325493
aF0.0013958689577334704
aF-0.7976096932785386
aa(lp705
F-0.2171093950781897
aF0.6282556159272515
aF-0.781113413323473
aF-0.012006073845828684
aF0.2198025467524324
aa(lp706
F0.8477860476898763
aF1.0650877733773387
aF0.0049859393615870745
aF0.4854120108143508
aF0.41496178500760267
aa(lp707
F0.1441309941250814
aF0.06458948873351233
aF0.2361542401591827
aF-0.21634216269053513
aF0.8414914234409027
aaa(lp708
(lp709
F1.0028738564161332
aF-1.0248564388365071
aF-0.7773230601792556
aF0.2336358726512687
aa(lp710
F0.8025535747471941
aF0.15574334684013783
aF-0.034268637702462204
aF-0.31634549900334197
aa(lp711
F0.6729669489435856
aF-0.7692557841504156
aF-0.5641770866265953
aF-0.22368255879158122
aa(lp712
F0.42518000748369095
aF0.03782455329058794
aF-0.8386361435797284
aF0.878835320573144
aa(lp713
F-0.1106134947888105
aF0.7720492202394783
aF0.7591872399302029
aF-0.688065929660206
aaaF91.25000000000001
tp714
a((lp715
(lp716
(lp717
F0.058967391313517914
aF-0.149234734028779
aF0.4346041624809325
aF-0.867510325463271
aF-0.34192117494722374
aa(lp718
F-0.26558464422992656
aF-0.20603943117882845
aF0.06958194886876694
aF-0.17978825359974537
aF0.9349371775309134
aa(lp719
F-0.2675850378031022
aF-0.3639739854627478
aF0.45905876366922793
aF-0.11856661291457461
aF0.599486428898372
aa(lp720
F0.649883928978159
aF0.7102910821976746
aF-0.006844482740945693
aF0.8775210698703403
aF0.2688172202119428
aa(lp721
F-0.8706422528082591
aF-0.14686549042323802
aF-0.6268579317325493
aF0.0013958689577334704
aF-0.8951314068278704
aa(lp722
F-0.24830352887071427
aF0.6216898589733283
aF-0.9137846560276596
aF-0.05948650230212534
aF0.17590261410380376
aa(lp723
F0.8937497511809617
aF0.9661783797367681
aF-0.019739595100579405
aF0.5001786515240939
aF0.41423215929295076
aa(lp724
F0.2664724253173989
aF0.06381875875315243
aF0.2361542401591827
aF-0.25579470611816063
aF0.7939462026501695
aaa(lp725
(lp726
F1.0831889771576304
aF-1.0180164685089024
aF-0.6794695855541864
aF0.1757580436888681
aa(lp727
F0.8025535747471941
aF0.15574334684013783
aF-0.034268637702462204
aF-0.3286967903380199
aa(lp728
F0.7455901086213411
aF-0.7692557841504156
aF-0.6228933495757891
aF-0.318477773265058
aa(lp729
F0.42518000748369095
aF0.1368857731021868
aF-0.8386361435797284
aF0.8101554102945544
aa(lp730
F-0.1106134947888105
aF0.6903433080811276
aF0.8487805044161278
aF-0.6109563598584943
aaaF91.25000000000001
tp731
a((lp732
(lp733
(lp734
F0.04151645566403746
aF-0.001668821632506333
aF0.5253275694855789
aF-0.9267414694926897
aF-0.16747479690951497
aa(lp735
F-0.3551803120731912
aF0.015085641038582724
aF0.05980870934282431
aF-0.09340121503557734
aF0.8566447715358378
aa(lp736
F-0.2675850378031022
aF-0.397281455103394
aF0.38808404143617825
aF0.15496513359528155
aF0.35324349137612576
aa(lp737
F0.6515220258974059
aF0.715605831880394
aF-0.006844482740945693
aF0.8775210698703403
aF0.3309183666281338
aa(lp738
F-0.9732360093979578
aF-0.08581170014793917
aF-0.6268579317325493
aF0.03046995969208597
aF-0.8635968213062893
aa(lp739
F-0.2171093950781897
aF0.5315159479461679
aF-0.8705430092407515
aF-0.012006073845828684
aF0.19263332654282653
aa(lp740
F0.8477860476898763
aF0.9661783797367681
aF0.0049859393615870745
aF0.4854120108143508
aF0.41496178500760267
aa(lp741
F0.1441309941250814
aF0.06458948873351233
aF0.2361542401591827
aF-0.21634216269053513
aF0.7939462026501695
aaa(lp742
(lp743
F1.0028738564161332
aF-1.054745879835037
aF-0.8483559812281681
aF0.2336358726512687
aa(lp744
F0.8025535747471941
aF0.15574334684013783
aF0.003831959390873531
aF-0.31634549900334197
aa(lp745
F0.6729669489435856
aF-0.7692557841504156
aF-0.5641770866265953
aF-0.13290771824578732
aa(lp746
F0.4518420805378967
aF0.03782455329058794
aF-0.8386361435797284
aF0.878835320573144
aa(lp747
F-0.1106134947888105
aF0.7720492202394783
aF0.6678557231924019
aF-0.6418822672610943
aaaF91.25000000000001
tp748
a((lp749
(lp750
(lp751
F0.058967391313517914
aF-0.05498516926198404
aF0.5253275694855789
aF-0.929342910233601
aF-0.2526549655513918
aa(lp752
F-0.26558464422992656
aF-0.16012956369226883
aF-0.028289974094729248
aF-0.09340121503557734
aF0.8566447715358378
aa(lp753
F-0.23724803453244647
aF-0.34556907297260825
aF0.45905876366922793
aF-0.2021752056144136
aF0.599486428898372
aa(lp754
F0.6328539210381048
aF0.7102910821976746
aF-0.006844482740945693
aF0.8775210698703403
aF0.3309183666281338
aa(lp755
F-0.8706422528082591
aF-0.14686549042323802
aF-0.6268579317325493
aF0.0013958689577334704
aF-0.8951314068278704
aa(lp756
F-0.29500061831930324
aF0.6216898589733283
aF-0.9137846560276596
aF-0.05948650230212534
aF0.17590261410380376
aa(lp757
F0.8937497511809617
aF0.9661783797367681
aF-0.019739595100579405
aF0.48280927128480355
aF0.41423215929295076
aa(lp758
F0.2299864071536119
aF0.06381875875315243
aF0.2361542401591827
aF-0.25579470611816063
aF0.7939462026501695
aaa(lp759
(lp760
F1.0831889771576304
aF-1.0180164685089024
aF-0.6794695855541864
aF0.2336358726512687
aa(lp761
F0.8025535747471941
aF0.15574334684013783
aF-0.034268637702462204
aF-0.3286967903380199
aa(lp762
F0.7455901086213411
aF-0.7692557841504156
aF-0.6228933495757891
aF-0.318477773265058
aa(lp763
F0.45130357380074804
aF0.03782455329058794
aF-0.8386361435797284
aF0.8101554102945544
aa(lp764
F-0.1106134947888105
aF0.6903433080811276
aF0.7591872399302029
aF-0.692322872169675
aaaF91.25000000000001
tp765
a((lp766
(lp767
(lp768
F0.058967391313517914
aF-0.05498516926198404
aF0.5253275694855789
aF-0.929342910233601
aF-0.2526549655513918
aa(lp769
F-0.26558464422992656
aF-0.10735042793631995
aF-0.08809971915870493
aF-0.09340121503557734
aF0.8566447715358378
aa(lp770
F-0.2675850378031022
aF-0.28359500888087724
aF0.45905876366922793
aF-0.12118912322009258
aF0.599486428898372
aa(lp771
F0.6732845308522831
aF0.7102910821976746
aF-0.006844482740945693
aF0.8775210698703403
aF0.3309183666281338
aa(lp772
F-0.8706422528082591
aF-0.14686549042323802
aF-0.6268579317325493
aF0.0013958689577334704
aF-0.8951314068278704
aa(lp773
F-0.2354530430627676
aF0.6216898589733283
aF-0.9021607408990576
aF-0.05948650230212534
aF0.1811132628797912
aa(lp774
F0.8937497511809617
aF0.9661783797367681
aF-0.019739595100579405
aF0.48280927128480355
aF0.3460491620561045
aa(lp775
F0.2299864071536119
aF-0.01081354786860858
aF0.2361542401591827
aF-0.25579470611816063
aF0.7939462026501695
aaa(lp776
(lp777
F1.0831889771576304
aF-1.0180164685089024
aF-0.7003240355879
aF0.21553512844350234
aa(lp778
F0.8025535747471941
aF0.15574334684013783
aF-0.034268637702462204
aF-0.3286967903380199
aa(lp779
F0.7455901086213411
aF-0.7692557841504156
aF-0.5230984396623406
aF-0.318477773265058
aa(lp780
F0.42518000748369095
aF0.03782455329058794
aF-0.8386361435797284
aF0.8101554102945544
aa(lp781
F-0.1106134947888105
aF0.6981054386740879
aF0.7591872399302029
aF-0.692322872169675
aaaF91.25000000000001
tp782
a((lp783
(lp784
(lp785
F0.04151645566403746
aF-0.05498516926198404
aF0.5690315162187412
aF-0.929342910233601
aF-0.16747479690951497
aa(lp786
F-0.26558464422992656
aF-0.10735042793631995
aF-0.08951623865396663
aF-0.05836146229859784
aF0.8566447715358378
aa(lp787
F-0.2675850378031022
aF-0.34556907297260825
aF0.38808404143617825
aF-0.056936571907964986
aF0.4436560089975724
aa(lp788
F0.7388703943973197
aF0.7102910821976746
aF0.06829680248137131
aF0.8775210698703403
aF0.2627395146951576
aa(lp789
F-0.8706422528082591
aF-0.14686549042323802
aF-0.692837863874162
aF0.023817177063577933
aF-0.8670631764585359
aa(lp790
F-0.2171093950781897
aF0.5870221675627624
aF-0.8705430092407515
aF0.025357625961980632
aF0.282558355409642
aa(lp791
F0.8117471199413164
aF0.906527309316677
aF-0.019739595100579405
aF0.48280927128480355
aF0.3762602297567351
aa(lp792
F0.1441309941250814
aF-0.028573757801913194
aF0.2361542401591827
aF-0.2000627411737006
aF0.7939462026501695
aaa(lp793
(lp794
F1.0989325199317908
aF-1.0180164685089024
aF-0.6794695855541864
aF0.2336358726512687
aa(lp795
F0.7985750174232062
aF0.13522503754994192
aF-0.034268637702462204
aF-0.31634549900334197
aa(lp796
F0.7056862248736964
aF-0.7313336645224282
aF-0.5641770866265953
aF-0.318477773265058
aa(lp797
F0.42518000748369095
aF0.03782455329058794
aF-0.8386361435797284
aF0.8101554102945544
aa(lp798
F-0.020180338068833514
aF0.7869647655606847
aF0.7591872399302029
aF-0.6504877763050507
aaaF91.25000000000001
tp799
a((lp800
(lp801
(lp802
F0.057124230474114995
aF-0.05498516926198404
aF0.5690315162187412
aF-0.929342910233601
aF-0.16747479690951497
aa(lp803
F-0.2749713192437269
aF-0.10735042793631995
aF-0.0725236110435536
aF-0.05836146229859784
aF0.8566447715358378
aa(lp804
F-0.22352078239917694
aF-0.3935884485348299
aF0.38808404143617825
aF-0.010092160055524657
aF0.5387675063385138
aa(lp805
F0.7388703943973197
aF0.7102910821976746
aF0.06829680248137131
aF0.8775210698703403
aF0.2627395146951576
aa(lp806
F-0.8706422528082591
aF-0.14686549042323802
aF-0.692837863874162
aF0.023817177063577933
aF-0.8670631764585359
aa(lp807
F-0.2171093950781897
aF0.5870221675627624
aF-0.8705430092407515
aF0.025357625961980632
aF0.282558355409642
aa(lp808
F0.8117471199413164
aF0.906527309316677
aF-0.09450904704424894
aF0.48280927128480355
aF0.3762602297567351
aa(lp809
F0.1441309941250814
aF-0.005334337720878914
aF0.2361542401591827
aF-0.2000627411737006
aF0.7939462026501695
aaa(lp810
(lp811
F1.0831889771576304
aF-1.0180164685089024
aF-0.6794695855541864
aF0.2336358726512687
aa(lp812
F0.7985750174232062
aF0.13522503754994192
aF-0.034268637702462204
aF-0.31634549900334197
aa(lp813
F0.7455901086213411
aF-0.7313336645224282
aF-0.6381866942561212
aF-0.318477773265058
aa(lp814
F0.42518000748369095
aF0.03782455329058794
aF-0.8386361435797284
aF0.8101554102945544
aa(lp815
F-0.1106134947888105
aF0.7869647655606847
aF0.8153052581656556
aF-0.6504877763050507
aaaF91.25000000000001
tp816
a((lp817
(lp818
(lp819
F0.04151645566403746
aF-0.007296790081877169
aF0.5554401750686947
aF-0.929342910233601
aF-0.16747479690951497
aa(lp820
F-0.26558464422992656
aF-0.10735042793631995
aF0.002570997113094109
aF-0.05836146229859784
aF0.8566447715358378
aa(lp821
F-0.21669891458361212
aF-0.263443864578521
aF0.31107910236167274
aF-0.056936571907964986
aF0.48023271385365457
aa(lp822
F0.8620131534253446
aF0.7102910821976746
aF0.09461339791719856
aF0.8562579017333802
aF0.3258893574342656
aa(lp823
F-0.8706422528082591
aF-0.14686549042323802
aF-0.6947583266987926
aF-0.006193857129844615
aF-0.8441911541283266
aa(lp824
F-0.23225925315447787
aF0.5870221675627624
aF-0.7923306545349627
aF-0.04351251321103676
aF0.19263332654282653
aa(lp825
F0.714341362878397
aF0.906527309316677
aF0.04271707411000142
aF0.48280927128480355
aF0.3762602297567351
aa(lp826
F0.18218093929602094
aF-0.028573757801913194
aF0.2361542401591827
aF-0.2000627411737006
aF0.7939462026501695
aaa(lp827
(lp828
F1.0831889771576304
aF-1.0180164685089024
aF-0.6794695855541864
aF0.2336358726512687
aa(lp829
F0.8221177459117912
aF0.21204532996471853
aF0.00606433802852633
aF-0.3905371451637919
aa(lp830
F0.7425280883836409
aF-0.7313336645224282
aF-0.5641770866265953
aF-0.2707849400012888
aa(lp831
F0.42518000748369095
aF-0.022360615450790954
aF-0.8386361435797284
aF0.8592792541555044
aa(lp832
F-0.1106134947888105
aF0.7869647655606847
aF0.7379919473385252
aF-0.6504877763050507
aaaF91.25000000000001
tp833
a((lp834
(lp835
(lp836
F0.04151645566403746
aF-0.05498516926198404
aF0.5554401750686947
aF-0.929342910233601
aF-0.16747479690951497
aa(lp837
F-0.26558464422992656
aF-0.10735042793631995
aF0.002570997113094109
aF-0.05836146229859784
aF0.8566447715358378
aa(lp838
F-0.2868961324089489
aF-0.263443864578521
aF0.31107910236167274
aF-0.03574096105850552
aF0.48023271385365457
aa(lp839
F0.7388703943973197
aF0.7102910821976746
aF0.06829680248137131
aF0.9016494198036502
aF0.3258893574342656
aa(lp840
F-0.8706422528082591
aF-0.14686549042323802
aF-0.7165840787936633
aF-0.006193857129844615
aF-0.8951314068278704
aa(lp841
F-0.2171093950781897
aF0.5870221675627624
aF-0.7923306545349627
aF0.009868826257185612
aF0.19559541683954737
aa(lp842
F0.714341362878397
aF1.0031025595336365
aF0.04271707411000142
aF0.48280927128480355
aF0.3762602297567351
aa(lp843
F0.18218093929602094
aF-0.028573757801913194
aF0.2361542401591827
aF-0.2000627411737006
aF0.7939462026501695
aaa(lp844
(lp845
F1.043500801336476
aF-1.0180164685089024
aF-0.6794695855541864
aF0.2336358726512687
aa(lp846
F0.8221177459117912
aF0.21204532996471853
aF0.00606433802852633
aF-0.3905371451637919
aa(lp847
F0.7425280883836409
aF-0.7313336645224282
aF-0.5641770866265953
aF-0.24501943752056074
aa(lp848
F0.42518000748369095
aF0.05883365407323511
aF-0.8386361435797284
aF0.8592792541555044
aa(lp849
F-0.039642143511673514
aF0.8459219302373608
aF0.7591872399302029
aF-0.6504877763050507
aaaF91.25000000000001
tp850
a((lp851
(lp852
(lp853
F-0.05195620185428594
aF-0.001668821632506333
aF0.5065491833808293
aF-0.9161025130076589
aF-0.16747479690951497
aa(lp854
F-0.3697836302277351
aF0.015085641038582724
aF0.022721852287614953
aF-0.17167662174800402
aF0.8566447715358378
aa(lp855
F-0.2321006455105124
aF-0.397281455103394
aF0.4072271081824371
aF0.15496513359528155
aF0.44228601242882193
aa(lp856
F0.6515220258974059
aF0.715605831880394
aF-0.006844482740945693
aF0.8775210698703403
aF0.4214170051877445
aa(lp857
F-0.9364651938053954
aF-0.1540447723717101
aF-0.5594669933117531
aF-0.060558871399766304
aF-0.8679352291765196
aa(lp858
F-0.2171093950781897
aF0.48704988974462554
aF-0.8705430092407515
aF0.03478586846933214
aF0.23436887371930748
aa(lp859
F0.8825299898322715
aF0.8795340332877917
aF0.09231609581935321
aF0.5347512131370931
aF0.4515287582160114
aa(lp860
F0.18055275326171663
aF-0.08490995634832367
aF0.2361542401591827
aF-0.21634216269053513
aF0.7743922223459243
aaa(lp861
(lp862
F1.0749455873938225
aF-1.1229786581151764
aF-0.8483559812281681
aF0.3314426039987567
aa(lp863
F0.8025535747471941
aF0.15574334684013783
aF-0.034268637702462204
aF-0.31634549900334197
aa(lp864
F0.6729669489435856
aF-0.737875265303308
aF-0.5641770866265953
aF-0.22368255879158122
aa(lp865
F0.46093694325028495
aF0.03782455329058794
aF-0.8386361435797284
aF0.878835320573144
aa(lp866
F-0.1106134947888105
aF0.7720492202394783
aF0.7591872399302029
aF-0.6418822672610943
aaaF91.20000000000002
tp867
a((lp868
(lp869
(lp870
F0.058967391313517914
aF-0.05498516926198404
aF0.5710819989775245
aF-0.8727033461886737
aF-0.32540947427873956
aa(lp871
F-0.21911974939615236
aF-0.032832169419204374
aF-0.028289974094729248
aF-0.13709650516824773
aF0.8566447715358378
aa(lp872
F-0.23724803453244647
aF-0.34556907297260825
aF0.39107033700034605
aF-0.20941890607607833
aF0.599486428898372
aa(lp873
F0.779023803694864
aF0.7102910821976746
aF0.017375862240640225
aF0.8775210698703403
aF0.3447881686375946
aa(lp874
F-0.8706422528082591
aF-0.14686549042323802
aF-0.6268579317325493
aF-0.09687208047069598
aF-0.8951314068278704
aa(lp875
F-0.2354530430627676
aF0.6943161920008916
aF-0.9137846560276596
aF-0.05948650230212534
aF0.11206344692856228
aa(lp876
F0.8937497511809617
aF0.866963337547465
aF0.0015257743611012918
aF0.5491495832582123
aF0.41423215929295076
aa(lp877
F0.18891330528279193
aF0.06381875875315243
aF0.20180838207811777
aF-0.25579470611816063
aF0.8227760330824763
aaa(lp878
(lp879
F1.0831889771576304
aF-1.0180164685089024
aF-0.6794695855541864
aF0.28247586342476494
aa(lp880
F0.8025535747471941
aF0.18920741707445574
aF0.06205205376095793
aF-0.3821768389810106
aa(lp881
F0.7455901086213411
aF-0.7692557841504156
aF-0.6228933495757891
aF-0.318477773265058
aa(lp882
F0.42518000748369095
aF0.03782455329058794
aF-0.8386361435797284
aF0.8101554102945544
aa(lp883
F-0.1106134947888105
aF0.6903433080811276
aF0.7591872399302029
aF-0.692322872169675
aaaF91.20000000000002
tp884
a((lp885
(lp886
(lp887
F0.04151645566403746
aF-0.05498516926198404
aF0.5065081715204748
aF-0.929342910233601
aF-0.20779201761500543
aa(lp888
F-0.26558464422992656
aF-0.10735042793631995
aF0.002570997113094109
aF-0.05836146229859784
aF0.8566447715358378
aa(lp889
F-0.2675850378031022
aF-0.34556907297260825
aF0.3616624703363385
aF-0.0021102179943281035
aF0.530612500729248
aa(lp890
F0.7388703943973197
aF0.7102910821976746
aF0.06829680248137131
aF0.8775210698703403
aF0.2627395146951576
aa(lp891
F-0.8706422528082591
aF-0.14686549042323802
aF-0.7397381465630485
aF0.023817177063577933
aF-0.8951314068278704
aa(lp892
F-0.2171093950781897
aF0.57467728793556
aF-0.8705430092407515
aF0.025357625961980632
aF0.10312860356886522
aa(lp893
F0.8117471199413164
aF0.906527309316677
aF-0.021907349491982336
aF0.5589707322882966
aF0.28224651506912546
aa(lp894
F0.1441309941250814
aF0.013478461263756791
aF0.2361542401591827
aF-0.20297450750720725
aF0.7939462026501695
aaa(lp895
(lp896
F1.0831889771576304
aF-1.0180164685089024
aF-0.6794695855541864
aF0.32898989149910585
aa(lp897
F0.7985750174232062
aF0.13522503754994192
aF-0.034268637702462204
aF-0.31634549900334197
aa(lp898
F0.7455901086213411
aF-0.6706225864954668
aF-0.5070734297704403
aF-0.318477773265058
aa(lp899
F0.42518000748369095
aF0.03782455329058794
aF-0.8386361435797284
aF0.8101554102945544
aa(lp900
F-0.1476578231598804
aF0.8028482694358071
aF0.7591872399302029
aF-0.6754759282160331
aaaF91.20000000000002
tp901
a((lp902
(lp903
(lp904
F0.04151645566403746
aF-0.007296790081877169
aF0.5554401750686947
aF-0.929342910233601
aF-0.16747479690951497
aa(lp905
F-0.26558464422992656
aF-0.10735042793631995
aF0.002570997113094109
aF-0.05836146229859784
aF0.8566447715358378
aa(lp906
F-0.21669891458361212
aF-0.263443864578521
aF0.31107910236167274
aF-0.056936571907964986
aF0.48023271385365457
aa(lp907
F0.7956399528793582
aF0.6912218133363189
aF0.09461339791719856
aF0.8562579017333802
aF0.3258893574342656
aa(lp908
F-0.8706422528082591
aF-0.14686549042323802
aF-0.6947583266987926
aF-0.006193857129844615
aF-0.8951314068278704
aa(lp909
F-0.23225925315447787
aF0.5870221675627624
aF-0.7923306545349627
aF-0.04351251321103676
aF0.19263332654282653
aa(lp910
F0.714341362878397
aF1.0048113970745058
aF0.04271707411000142
aF0.48280927128480355
aF0.3762602297567351
aa(lp911
F0.18218093929602094
aF-0.028573757801913194
aF0.2361542401591827
aF-0.2000627411737006
aF0.7939462026501695
aaa(lp912
(lp913
F1.0831889771576304
aF-1.0180164685089024
aF-0.5825866651143069
aF0.2336358726512687
aa(lp914
F0.8221177459117912
aF0.21204532996471853
aF0.00606433802852633
aF-0.3905371451637919
aa(lp915
F0.7425280883836409
aF-0.7313336645224282
aF-0.5641770866265953
aF-0.318477773265058
aa(lp916
F0.42518000748369095
aF-0.022360615450790954
aF-0.8386361435797284
aF0.8592792541555044
aa(lp917
F-0.1106134947888105
aF0.7869647655606847
aF0.7379919473385252
aF-0.6504877763050507
aaaF91.20000000000002
tp918
a((lp919
(lp920
(lp921
F0.058967391313517914
aF-0.05498516926198404
aF0.5253275694855789
aF-0.929342910233601
aF-0.2526549655513918
aa(lp922
F-0.26558464422992656
aF-0.10735042793631995
aF-0.028289974094729248
aF-0.09340121503557734
aF0.8566447715358378
aa(lp923
F-0.23724803453244647
aF-0.34556907297260825
aF0.45905876366922793
aF-0.12118912322009258
aF0.599486428898372
aa(lp924
F0.6543853005792742
aF0.7102910821976746
aF-0.006844482740945693
aF0.8775210698703403
aF0.3309183666281338
aa(lp925
F-0.8706422528082591
aF-0.14686549042323802
aF-0.6268579317325493
aF0.0013958689577334704
aF-0.8951314068278704
aa(lp926
F-0.2354530430627676
aF0.6216898589733283
aF-0.9137846560276596
aF-0.05948650230212534
aF0.19450157834799253
aa(lp927
F0.8937497511809617
aF0.9661783797367681
aF-0.10194894534124466
aF0.48280927128480355
aF0.41423215929295076
aa(lp928
F0.2299864071536119
aF0.06381875875315243
aF0.2361542401591827
aF-0.25579470611816063
aF0.7939462026501695
aaa(lp929
(lp930
F1.0831889771576304
aF-1.0180164685089024
aF-0.6794695855541864
aF0.2336358726512687
aa(lp931
F0.8025535747471941
aF0.15574334684013783
aF-0.034268637702462204
aF-0.2949686208347573
aa(lp932
F0.7455901086213411
aF-0.7692557841504156
aF-0.6228933495757891
aF-0.318477773265058
aa(lp933
F0.42518000748369095
aF0.03782455329058794
aF-0.8386361435797284
aF0.8101554102945544
aa(lp934
F-0.1106134947888105
aF0.6903433080811276
aF0.7591872399302029
aF-0.692322872169675
aaaF91.20000000000002
tp935
a((lp936
(lp937
(lp938
F0.07620833245291077
aF-0.05498516926198404
aF0.5690315162187412
aF-0.9935189933357361
aF-0.16747479690951497
aa(lp939
F-0.26558464422992656
aF-0.1567308642260269
aF0.002570997113094109
aF-0.05836146229859784
aF0.9054239234963436
aa(lp940
F-0.2675850378031022
aF-0.34556907297260825
aF0.33142163047822415
aF-0.13239541864537852
aF0.5387675063385138
aa(lp941
F0.7388703943973197
aF0.7102910821976746
aF0.06829680248137131
aF0.8775210698703403
aF0.2627395146951576
aa(lp942
F-0.8706422528082591
aF-0.14686549042323802
aF-0.692837863874162
aF-0.03099733737190762
aF-0.8951314068278704
aa(lp943
F-0.2171093950781897
aF0.5870221675627624
aF-0.8747451941722189
aF-0.0355656843799874
aF0.22440989553858595
aa(lp944
F0.8117471199413164
aF0.8845207363525864
aF-0.03480359268723625
aF0.48280927128480355
aF0.3762602297567351
aa(lp945
F0.2794324969721406
aF0.04207388748440079
aF0.1382990267730207
aF-0.15055053483846362
aF0.8442158247618655
aaa(lp946
(lp947
F1.0831889771576304
aF-1.0180164685089024
aF-0.6794695855541864
aF0.3111476258018386
aa(lp948
F0.7985750174232062
aF0.13522503754994192
aF-0.034268637702462204
aF-0.31634549900334197
aa(lp949
F0.7455901086213411
aF-0.7313336645224282
aF-0.5641770866265953
aF-0.24971929240917912
aa(lp950
F0.42518000748369095
aF0.03782455329058794
aF-0.8386361435797284
aF0.8101554102945544
aa(lp951
F-0.11895651791734739
aF0.7869647655606847
aF0.7591872399302029
aF-0.6504877763050507
aaaF91.20000000000002
tp952
a((lp953
(lp954
(lp955
F0.04151645566403746
aF-0.05498516926198404
aF0.5554401750686947
aF-0.929342910233601
aF-0.16747479690951497
aa(lp956
F-0.26558464422992656
aF-0.10735042793631995
aF0.002570997113094109
aF-0.05836146229859784
aF0.9546946549371416
aa(lp957
F-0.25757535170755513
aF-0.263443864578521
aF0.26901832232070155
aF-0.10274102118877337
aF0.48023271385365457
aa(lp958
F0.7388703943973197
aF0.7102910821976746
aF0.06829680248137131
aF0.8562579017333802
aF0.3258893574342656
aa(lp959
F-0.8706422528082591
aF-0.1564181106835837
aF-0.7814167919802979
aF-0.006193857129844615
aF-0.8951314068278704
aa(lp960
F-0.2171093950781897
aF0.49334836202557764
aF-0.8428701565451806
aF0.08743638150528053
aF0.19263332654282653
aa(lp961
F0.6718559047163968
aF0.8418927565740466
aF0.04271707411000142
aF0.48280927128480355
aF0.3762602297567351
aa(lp962
F0.18218093929602094
aF0.04308261795218951
aF0.2361542401591827
aF-0.15803053933373015
aF0.7939462026501695
aaa(lp963
(lp964
F1.0485829620000386
aF-1.0180164685089024
aF-0.6794695855541864
aF0.2336358726512687
aa(lp965
F0.8221177459117912
aF0.21204532996471853
aF0.00606433802852633
aF-0.3905371451637919
aa(lp966
F0.6544734727090389
aF-0.7313336645224282
aF-0.5641770866265953
aF-0.30293632433223117
aa(lp967
F0.3704219408722316
aF0.03782455329058794
aF-0.8386361435797284
aF0.8592792541555044
aa(lp968
F-0.1106134947888105
aF0.7869647655606847
aF0.7591872399302029
aF-0.6504877763050507
aaaF91.20000000000002
tp969
a((lp970
(lp971
(lp972
F0.04151645566403746
aF0.044612868875334784
aF0.6447634157580211
aF-0.929342910233601
aF-0.14936414403919504
aa(lp973
F-0.26558464422992656
aF-0.15747063587464638
aF0.002570997113094109
aF-0.05836146229859784
aF0.8566447715358378
aa(lp974
F-0.2675850378031022
aF-0.34556907297260825
aF0.38808404143617825
aF-0.056936571907964986
aF0.5387675063385138
aa(lp975
F0.7388703943973197
aF0.7102910821976746
aF0.06829680248137131
aF0.8775210698703403
aF0.2627395146951576
aa(lp976
F-0.8706422528082591
aF-0.14686549042323802
aF-0.692837863874162
aF0.023817177063577933
aF-0.8951314068278704
aa(lp977
F-0.2171093950781897
aF0.6510777581189165
aF-0.8705430092407515
aF0.01789420168526161
aF0.19263332654282653
aa(lp978
F0.8117471199413164
aF0.9977545407269994
aF-0.019739595100579405
aF0.48280927128480355
aF0.3762602297567351
aa(lp979
F0.2010696139544109
aF-0.07981224977339857
aF0.2361542401591827
aF-0.2000627411737006
aF0.7939462026501695
aaa(lp980
(lp981
F1.0831889771576304
aF-1.0180164685089024
aF-0.6794695855541864
aF0.2336358726512687
aa(lp982
F0.7985750174232062
aF0.13522503754994192
aF-0.034268637702462204
aF-0.31634549900334197
aa(lp983
F0.7455901086213411
aF-0.7313336645224282
aF-0.5641770866265953
aF-0.32570460542260427
aa(lp984
F0.42518000748369095
aF0.03782455329058794
aF-0.8386361435797284
aF0.8455763086703288
aa(lp985
F-0.1106134947888105
aF0.7869647655606847
aF0.7591872399302029
aF-0.6504877763050507
aaaF91.20000000000002
tp986
a((lp987
(lp988
(lp989
F0.07620833245291077
aF-0.05498516926198404
aF0.5690315162187412
aF-0.9935189933357361
aF-0.16747479690951497
aa(lp990
F-0.26558464422992656
aF-0.10735042793631995
aF0.002570997113094109
aF-0.05836146229859784
aF0.9054239234963436
aa(lp991
F-0.2675850378031022
aF-0.34556907297260825
aF0.33142163047822415
aF-0.13239541864537852
aF0.5658091472096931
aa(lp992
F0.7388703943973197
aF0.7102910821976746
aF0.06829680248137131
aF0.8775210698703403
aF0.345530073777751
aa(lp993
F-0.8706422528082591
aF-0.14686549042323802
aF-0.692837863874162
aF-0.03099733737190762
aF-0.8951314068278704
aa(lp994
F-0.2171093950781897
aF0.5870221675627624
aF-0.8747451941722189
aF0.025357625961980632
aF0.22440989553858595
aa(lp995
F0.8117471199413164
aF0.8057216142575607
aF-0.03480359268723625
aF0.48280927128480355
aF0.3762602297567351
aa(lp996
F0.2794324969721406
aF0.04207388748440079
aF0.05748151097627928
aF-0.15055053483846362
aF0.8442158247618655
aaa(lp997
(lp998
F1.0831889771576304
aF-1.0180164685089024
aF-0.6794695855541864
aF0.3111476258018386
aa(lp999
F0.7169773991688501
aF0.13522503754994192
aF-0.034268637702462204
aF-0.31634549900334197
aa(lp1000
F0.7455901086213411
aF-0.7313336645224282
aF-0.5641770866265953
aF-0.318477773265058
aa(lp1001
F0.42518000748369095
aF-0.03545637060954017
aF-0.7751292664507571
aF0.8101554102945544
aa(lp1002
F-0.12761389738236975
aF0.7869647655606847
aF0.7591872399302029
aF-0.6274357217319367
aaaF91.20000000000002
tp1003
a((lp1004
(lp1005
(lp1006
F0.018305670623992132
aF0.04620583169367779
aF0.5065491833808293
aF-0.9161025130076589
aF-0.16747479690951497
aa(lp1007
F-0.3697836302277351
aF0.015085641038582724
aF0.022721852287614953
aF-0.17167662174800402
aF0.8566447715358378
aa(lp1008
F-0.2675850378031022
aF-0.397281455103394
aF0.4072271081824371
aF0.15496513359528155
aF0.44228601242882193
aa(lp1009
F0.6515220258974059
aF0.715605831880394
aF-0.006844482740945693
aF0.8775210698703403
aF0.42227172451245554
aa(lp1010
F-0.9364651938053954
aF-0.08581170014793917
aF-0.6000311138004037
aF-0.060558871399766304
aF-0.8679352291765196
aa(lp1011
F-0.2171093950781897
aF0.48704988974462554
aF-0.8541893072344583
aF0.03478586846933214
aF0.23436887371930748
aa(lp1012
F0.8616701749413377
aF0.8795340332877917
aF0.15073742334261003
aF0.5347512131370931
aF0.43888090288769765
aa(lp1013
F0.18055275326171663
aF0.0016703379581204797
aF0.2361542401591827
aF-0.21634216269053513
aF0.7743922223459243
aaa(lp1014
(lp1015
F1.0028738564161332
aF-1.1229786581151764
aF-0.8483559812281681
aF0.3314426039987567
aa(lp1016
F0.8025535747471941
aF0.15574334684013783
aF-0.034268637702462204
aF-0.31634549900334197
aa(lp1017
F0.6729669489435856
aF-0.737875265303308
aF-0.6436412178288803
aF-0.22368255879158122
aa(lp1018
F0.42518000748369095
aF0.03782455329058794
aF-0.8386361435797284
aF0.878835320573144
aa(lp1019
F-0.1106134947888105
aF0.7720492202394783
aF0.7591872399302029
aF-0.6418822672610943
aaaF91.20000000000002
tp1020
a((lp1021
(lp1022
(lp1023
F0.057124230474114995
aF-0.05498516926198404
aF0.5690315162187412
aF-0.929342910233601
aF-0.16747479690951497
aa(lp1024
F-0.26558464422992656
aF-0.10735042793631995
aF-0.0725236110435536
aF-0.08647425319566901
aF0.8566447715358378
aa(lp1025
F-0.2675850378031022
aF-0.3013362227646045
aF0.38808404143617825
aF-0.010092160055524657
aF0.5387675063385138
aa(lp1026
F0.7388703943973197
aF0.7102910821976746
aF0.06829680248137131
aF0.8775210698703403
aF0.2627395146951576
aa(lp1027
F-0.8706422528082591
aF-0.14686549042323802
aF-0.692837863874162
aF0.023817177063577933
aF-0.8670631764585359
aa(lp1028
F-0.2171093950781897
aF0.5870221675627624
aF-0.8705430092407515
aF0.025357625961980632
aF0.2499429194424328
aa(lp1029
F0.733697093877075
aF0.906527309316677
aF-0.09450904704424894
aF0.48280927128480355
aF0.3762602297567351
aa(lp1030
F0.1441309941250814
aF-0.028573757801913194
aF0.2361542401591827
aF-0.2000627411737006
aF0.8700867819079608
aaa(lp1031
(lp1032
F1.0831889771576304
aF-1.0180164685089024
aF-0.6794695855541864
aF0.2336358726512687
aa(lp1033
F0.7985750174232062
aF0.13522503754994192
aF-0.034268637702462204
aF-0.31634549900334197
aa(lp1034
F0.7455901086213411
aF-0.759530837205705
aF-0.631044338416236
aF-0.318477773265058
aa(lp1035
F0.42518000748369095
aF0.03782455329058794
aF-0.8386361435797284
aF0.8101554102945544
aa(lp1036
F-0.1106134947888105
aF0.7869647655606847
aF0.8153052581656556
aF-0.6504877763050507
aaaF91.20000000000002
tp1037
a((lp1038
(lp1039
(lp1040
F0.058967391313517914
aF-0.05498516926198404
aF0.5710819989775245
aF-0.929342910233601
aF-0.32540947427873956
aa(lp1041
F-0.21911974939615236
aF-0.032832169419204374
aF-0.028289974094729248
aF-0.13709650516824773
aF0.8566447715358378
aa(lp1042
F-0.23724803453244647
aF-0.34556907297260825
aF0.45905876366922793
aF-0.12118912322009258
aF0.599486428898372
aa(lp1043
F0.7501415446716965
aF0.7102910821976746
aF0.017375862240640225
aF0.8775210698703403
aF0.3309183666281338
aa(lp1044
F-0.8706422528082591
aF-0.14686549042323802
aF-0.6268579317325493
aF-0.0905166697648167
aF-0.8951314068278704
aa(lp1045
F-0.2354530430627676
aF0.6965281999594554
aF-0.9137846560276596
aF-0.05948650230212534
aF0.11206344692856228
aa(lp1046
F0.8937497511809617
aF0.866963337547465
aF-0.019739595100579405
aF0.5491495832582123
aF0.41423215929295076
aa(lp1047
F0.18891330528279193
aF0.06381875875315243
aF0.20180838207811777
aF-0.25579470611816063
aF0.7939462026501695
aaa(lp1048
(lp1049
F1.0831889771576304
aF-1.0180164685089024
aF-0.6794695855541864
aF0.2336358726512687
aa(lp1050
F0.8025535747471941
aF0.18920741707445574
aF0.06205205376095793
aF-0.3286967903380199
aa(lp1051
F0.709038501527735
aF-0.7692557841504156
aF-0.6228933495757891
aF-0.318477773265058
aa(lp1052
F0.42518000748369095
aF0.03782455329058794
aF-0.8386361435797284
aF0.7652059662909686
aa(lp1053
F-0.1106134947888105
aF0.6743919311754394
aF0.7591872399302029
aF-0.692322872169675
aaaF91.20000000000002
tp1054
a((lp1055
(lp1056
(lp1057
F0.04045394740448993
aF-0.05498516926198404
aF0.4346041624809325
aF-0.929342910233601
aF-0.34192117494722374
aa(lp1058
F-0.26558464422992656
aF-0.10735042793631995
aF0.06958194886876694
aF-0.17978825359974537
aF0.9349371775309134
aa(lp1059
F-0.2675850378031022
aF-0.34556907297260825
aF0.45905876366922793
aF-0.12118912322009258
aF0.599486428898372
aa(lp1060
F0.649883928978159
aF0.7102910821976746
aF-0.006844482740945693
aF0.8775210698703403
aF0.2688172202119428
aa(lp1061
F-0.8706422528082591
aF-0.14686549042323802
aF-0.6268579317325493
aF0.0013958689577334704
aF-0.8951314068278704
aa(lp1062
F-0.2354530430627676
aF0.5917432479822
aF-0.9137846560276596
aF-0.05948650230212534
aF0.15654100669241094
aa(lp1063
F0.8937497511809617
aF0.9661783797367681
aF-0.019739595100579405
aF0.5001786515240939
aF0.41423215929295076
aa(lp1064
F0.31442949411178484
aF0.06381875875315243
aF0.2361542401591827
aF-0.25579470611816063
aF0.7939462026501695
aaa(lp1065
(lp1066
F1.0831889771576304
aF-1.0180164685089024
aF-0.6794695855541864
aF0.1757580436888681
aa(lp1067
F0.8025535747471941
aF0.15574334684013783
aF-0.034268637702462204
aF-0.3286967903380199
aa(lp1068
F0.7455901086213411
aF-0.7692557841504156
aF-0.6228933495757891
aF-0.318477773265058
aa(lp1069
F0.42518000748369095
aF0.1368857731021868
aF-0.8386361435797284
aF0.8101554102945544
aa(lp1070
F-0.1106134947888105
aF0.6903433080811276
aF0.7591872399302029
aF-0.6109563598584943
aaaF91.20000000000002
tp1071
a((lp1072
(lp1073
(lp1074
F0.04151645566403746
aF-0.001668821632506333
aF0.5253275694855789
aF-0.9161025130076589
aF-0.08729355146908546
aa(lp1075
F-0.2938500432692799
aF0.015085641038582724
aF0.022721852287614953
aF-0.17167662174800402
aF0.8566447715358378
aa(lp1076
F-0.2495085819147496
aF-0.397281455103394
aF0.4072271081824371
aF0.15496513359528155
aF0.44228601242882193
aa(lp1077
F0.6515220258974059
aF0.715605831880394
aF0.007066722708931092
aF0.9102534987813703
aF0.3309183666281338
aa(lp1078
F-0.9364651938053954
aF-0.08581170014793917
aF-0.5594669933117531
aF-0.060558871399766304
aF-0.8679352291765196
aa(lp1079
F-0.2171093950781897
aF0.32943716550247615
aF-0.8705430092407515
aF0.03478586846933214
aF0.23436887371930748
aa(lp1080
F0.8477860476898763
aF0.8795340332877917
aF0.15073742334261003
aF0.5562042412458287
aF0.41496178500760267
aa(lp1081
F0.18055275326171663
aF-0.033775010589850885
aF0.2361542401591827
aF-0.21634216269053513
aF0.7617147743728486
aaa(lp1082
(lp1083
F1.0028738564161332
aF-1.1259931676231603
aF-0.8483559812281681
aF0.2336358726512687
aa(lp1084
F0.8025535747471941
aF0.15574334684013783
aF-0.034268637702462204
aF-0.31634549900334197
aa(lp1085
F0.6729669489435856
aF-0.737875265303308
aF-0.5641770866265953
aF-0.22905650088585638
aa(lp1086
F0.42518000748369095
aF0.03782455329058794
aF-0.8386361435797284
aF0.878835320573144
aa(lp1087
F-0.10545024687867789
aF0.7720492202394783
aF0.7591872399302029
aF-0.5771991086339107
aaaF91.20000000000002
tp1088
a((lp1089
(lp1090
(lp1091
F0.04151645566403746
aF-0.05498516926198404
aF0.5075015747312017
aF-0.929342910233601
aF-0.16747479690951497
aa(lp1092
F-0.26558464422992656
aF-0.07100939338474062
aF0.002570997113094109
aF-0.05836146229859784
aF0.9546946549371416
aa(lp1093
F-0.25757535170755513
aF-0.263443864578521
aF0.22668932944844183
aF-0.056936571907964986
aF0.4772228782204721
aa(lp1094
F0.7388703943973197
aF0.7102910821976746
aF0.06829680248137131
aF0.9227344994899
aF0.38036079251126936
aa(lp1095
F-0.8706422528082591
aF-0.14686549042323802
aF-0.7420183633396145
aF-0.006193857129844615
aF-0.8951314068278704
aa(lp1096
F-0.2171093950781897
aF0.5870221675627624
aF-0.7923306545349627
aF0.009868826257185612
aF0.23731541455801475
aa(lp1097
F0.714341362878397
aF0.906527309316677
aF0.13562473540249764
aF0.48280927128480355
aF0.3762602297567351
aa(lp1098
F0.10645261546798325
aF0.04308261795218951
aF0.2361542401591827
aF-0.15803053933373015
aF0.7939462026501695
aaa(lp1099
(lp1100
F1.0831889771576304
aF-1.0180164685089024
aF-0.6794695855541864
aF0.2336358726512687
aa(lp1101
F0.8221177459117912
aF0.2244134824570628
aF0.00606433802852633
aF-0.4694830790931399
aa(lp1102
F0.7425280883836409
aF-0.7313336645224282
aF-0.5641770866265953
aF-0.38622434368055414
aa(lp1103
F0.42518000748369095
aF0.03782455329058794
aF-0.8386361435797284
aF0.8184061613393985
aa(lp1104
F-0.1106134947888105
aF0.7869647655606847
aF0.7591872399302029
aF-0.6504877763050507
aaaF91.20000000000002
tp1105
a((lp1106
(lp1107
(lp1108
F0.058967391313517914
aF-0.05498516926198404
aF0.5253275694855789
aF-0.929342910233601
aF-0.2526549655513918
aa(lp1109
F-0.26558464422992656
aF-0.10735042793631995
aF-0.028289974094729248
aF-0.09340121503557734
aF0.8566447715358378
aa(lp1110
F-0.2675850378031022
aF-0.34556907297260825
aF0.45905876366922793
aF-0.12118912322009258
aF0.599486428898372
aa(lp1111
F0.6732845308522831
aF0.7102910821976746
aF-0.006844482740945693
aF0.8775210698703403
aF0.3309183666281338
aa(lp1112
F-0.8017076233162586
aF-0.22828340720568646
aF-0.6268579317325493
aF0.0013958689577334704
aF-0.8951314068278704
aa(lp1113
F-0.2354530430627676
aF0.6216898589733283
aF-0.9137846560276596
aF-0.05948650230212534
aF0.17590261410380376
aa(lp1114
F0.8937497511809617
aF0.9661783797367681
aF-0.019739595100579405
aF0.4835671358558147
aF0.41423215929295076
aa(lp1115
F0.2299864071536119
aF0.06381875875315243
aF0.2361542401591827
aF-0.25579470611816063
aF0.7900205310163803
aaa(lp1116
(lp1117
F1.0831889771576304
aF-1.0180164685089024
aF-0.7790306869314536
aF0.2336358726512687
aa(lp1118
F0.8025535747471941
aF0.15574334684013783
aF-0.034268637702462204
aF-0.3286967903380199
aa(lp1119
F0.7455901086213411
aF-0.7692557841504156
aF-0.5229849638167037
aF-0.318477773265058
aa(lp1120
F0.42518000748369095
aF0.03782455329058794
aF-0.8386361435797284
aF0.8101554102945544
aa(lp1121
F-0.1106134947888105
aF0.6903433080811276
aF0.7591872399302029
aF-0.692322872169675
aaaF91.20000000000002
tp1122
a((lp1123
(lp1124
(lp1125
F0.04151645566403746
aF-0.001668821632506333
aF0.5610838223924068
aF-0.9161025130076589
aF-0.11866274416016526
aa(lp1126
F-0.2938500432692799
aF0.11270894959619801
aF0.022721852287614953
aF-0.17167662174800402
aF0.8566447715358378
aa(lp1127
F-0.16246601876700553
aF-0.397281455103394
aF0.3899785022981958
aF0.15496513359528155
aF0.44228601242882193
aa(lp1128
F0.6515220258974059
aF0.7910432989033127
aF-0.006844482740945693
aF0.8385835907179002
aF0.3309183666281338
aa(lp1129
F-0.9364651938053954
aF-0.08581170014793917
aF-0.5594669933117531
aF-0.060558871399766304
aF-0.8679352291765196
aa(lp1130
F-0.2171093950781897
aF0.41993846553009206
aF-0.8705430092407515
aF0.03478586846933214
aF0.23436887371930748
aa(lp1131
F0.8477860476898763
aF0.8795340332877917
aF0.15073742334261003
aF0.5562042412458287
aF0.41496178500760267
aa(lp1132
F0.18055275326171663
aF0.02049907705563314
aF0.2361542401591827
aF-0.21634216269053513
aF0.7617147743728486
aaa(lp1133
(lp1134
F1.0028738564161332
aF-1.1259931676231603
aF-0.8483559812281681
aF0.2336358726512687
aa(lp1135
F0.8025535747471941
aF0.17504304959767603
aF-0.034268637702462204
aF-0.31634549900334197
aa(lp1136
F0.6729669489435856
aF-0.737875265303308
aF-0.5641770866265953
aF-0.22368255879158122
aa(lp1137
F0.42518000748369095
aF0.03782455329058794
aF-0.8386361435797284
aF0.878835320573144
aa(lp1138
F-0.1110709249200284
aF0.7720492202394783
aF0.7591872399302029
aF-0.6418822672610943
aaaF91.20000000000002
tp1139
a((lp1140
(lp1141
(lp1142
F0.04151645566403746
aF-0.05498516926198404
aF0.5065081715204748
aF-0.929342910233601
aF-0.23107425939990428
aa(lp1143
F-0.26558464422992656
aF-0.10735042793631995
aF0.002570997113094109
aF-0.05836146229859784
aF0.8566447715358378
aa(lp1144
F-0.2675850378031022
aF-0.34556907297260825
aF0.38808404143617825
aF-0.0021102179943281035
aF0.530612500729248
aa(lp1145
F0.7388703943973197
aF0.7102910821976746
aF0.06829680248137131
aF0.8775210698703403
aF0.2627395146951576
aa(lp1146
F-0.8923461775180074
aF-0.14686549042323802
aF-0.7397381465630485
aF0.023817177063577933
aF-0.8951314068278704
aa(lp1147
F-0.2171093950781897
aF0.49218519384439624
aF-0.8705430092407515
aF0.008904521504812444
aF0.10312860356886522
aa(lp1148
F0.8117471199413164
aF0.9130110878760791
aF-0.0560668360202446
aF0.4628016504975967
aF0.37594420273151186
aa(lp1149
F0.1441309941250814
aF0.013478461263756791
aF0.2361542401591827
aF-0.20297450750720725
aF0.7939462026501695
aaa(lp1150
(lp1151
F1.0831889771576304
aF-1.0180164685089024
aF-0.6794695855541864
aF0.2336358726512687
aa(lp1152
F0.7745697943037854
aF0.13522503754994192
aF-0.034268637702462204
aF-0.31634549900334197
aa(lp1153
F0.6496569182872367
aF-0.7398653082289854
aF-0.5070734297704403
aF-0.318477773265058
aa(lp1154
F0.42518000748369095
aF0.03782455329058794
aF-0.8386361435797284
aF0.8101554102945544
aa(lp1155
F-0.1106134947888105
aF0.8028482694358071
aF0.7591872399302029
aF-0.6943572466141277
aaaF91.20000000000002
tp1156
a((lp1157
(lp1158
(lp1159
F0.058967391313517914
aF-0.05498516926198404
aF0.5253275694855789
aF-0.929342910233601
aF-0.2526549655513918
aa(lp1160
F-0.26558464422992656
aF-0.032832169419204374
aF-0.028289974094729248
aF-0.13709650516824773
aF0.8566447715358378
aa(lp1161
F-0.23724803453244647
aF-0.34556907297260825
aF0.45905876366922793
aF-0.11581574394013604
aF0.599486428898372
aa(lp1162
F0.7501415446716965
aF0.7518224098687986
aF0.017375862240640225
aF0.8775210698703403
aF0.3309183666281338
aa(lp1163
F-0.8706422528082591
aF-0.14686549042323802
aF-0.6268579317325493
aF0.0013958689577334704
aF-0.8951314068278704
aa(lp1164
F-0.2354530430627676
aF0.6965281999594554
aF-0.9137846560276596
aF-0.06396602158035786
aF0.17590261410380376
aa(lp1165
F0.8937497511809617
aF0.866963337547465
aF-0.019739595100579405
aF0.396507251850124
aF0.41423215929295076
aa(lp1166
F0.22907697615168654
aF0.06381875875315243
aF0.2842912287994467
aF-0.25579470611816063
aF0.7939462026501695
aaa(lp1167
(lp1168
F1.0831889771576304
aF-1.0180164685089024
aF-0.6794695855541864
aF0.2336358726512687
aa(lp1169
F0.8025535747471941
aF0.18242685296570052
aF0.06205205376095793
aF-0.3771335267973956
aa(lp1170
F0.7455901086213411
aF-0.7692557841504156
aF-0.7011400075173722
aF-0.318477773265058
aa(lp1171
F0.42518000748369095
aF-0.02174080186572465
aF-0.8386361435797284
aF0.8101554102945544
aa(lp1172
F-0.1106134947888105
aF0.6903433080811276
aF0.7591872399302029
aF-0.692322872169675
aaaF91.20000000000002
tp1173
a((lp1174
(lp1175
(lp1176
F0.04151645566403746
aF-0.012321388984043212
aF0.5253275694855789
aF-0.9161025130076589
aF-0.014185425336146168
aa(lp1177
F-0.335335189340886
aF0.015085641038582724
aF0.022721852287614953
aF-0.17167662174800402
aF0.8566447715358378
aa(lp1178
F-0.2495085819147496
aF-0.397281455103394
aF0.4072271081824371
aF0.15496513359528155
aF0.44228601242882193
aa(lp1179
F0.6515220258974059
aF0.715605831880394
aF-0.006844482740945693
aF0.9102534987813703
aF0.3309183666281338
aa(lp1180
F-0.9364651938053954
aF-0.08581170014793917
aF-0.5594669933117531
aF-0.060558871399766304
aF-0.8679352291765196
aa(lp1181
F-0.2171093950781897
aF0.41993846553009206
aF-0.7762537546495426
aF0.03478586846933214
aF0.23436887371930748
aa(lp1182
F0.8477860476898763
aF0.8795340332877917
aF0.15073742334261003
aF0.5562042412458287
aF0.41496178500760267
aa(lp1183
F0.18055275326171663
aF0.02049907705563314
aF0.22996423467454344
aF-0.21634216269053513
aF0.7617147743728486
aaa(lp1184
(lp1185
F1.0028738564161332
aF-1.1259931676231603
aF-0.8483559812281681
aF0.2336358726512687
aa(lp1186
F0.7401484316212196
aF0.15574334684013783
aF-0.034268637702462204
aF-0.31634549900334197
aa(lp1187
F0.6729669489435856
aF-0.737875265303308
aF-0.5641770866265953
aF-0.22368255879158122
aa(lp1188
F0.42518000748369095
aF0.03782455329058794
aF-0.8386361435797284
aF0.8106917827851164
aa(lp1189
F-0.1106134947888105
aF0.7720492202394783
aF0.7591872399302029
aF-0.6418822672610943
aaaF91.20000000000002
tp1190
a((lp1191
(lp1192
(lp1193
F0.08805184788393611
aF-0.05498516926198404
aF0.5002650990601996
aF-0.9935189933357361
aF-0.1427057371696769
aa(lp1194
F-0.4468359672646968
aF-0.10735042793631995
aF0.03331643743902527
aF-0.05836146229859784
aF0.9054239234963436
aa(lp1195
F-0.32166983029127627
aF-0.34556907297260825
aF0.19209065641311435
aF-0.13239541864537852
aF0.5387675063385138
aa(lp1196
F0.7388703943973197
aF0.7102910821976746
aF0.1559629793260348
aF0.8775210698703403
aF0.3095996507468801
aa(lp1197
F-0.8404815207593908
aF-0.14686549042323802
aF-0.692837863874162
aF-0.03099733737190762
aF-0.8951314068278704
aa(lp1198
F-0.16756197845109844
aF0.5870221675627624
aF-0.7840662773408061
aF0.15762670768664666
aF0.22440989553858595
aa(lp1199
F0.8117471199413164
aF0.8845207363525864
aF-0.03480359268723625
aF0.48280927128480355
aF0.3762602297567351
aa(lp1200
F0.2794324969721406
aF0.04207388748440079
aF0.1382990267730207
aF-0.15055053483846362
aF0.7795927288315304
aaa(lp1201
(lp1202
F1.0831889771576304
aF-1.0180164685089024
aF-0.697765891927748
aF0.230076742845072
aa(lp1203
F0.7392824033571515
aF0.13522503754994192
aF-0.034268637702462204
aF-0.31634549900334197
aa(lp1204
F0.6465668269981643
aF-0.7313336645224282
aF-0.5641770866265953
aF-0.318477773265058
aa(lp1205
F0.4658778850419343
aF0.03782455329058794
aF-0.8386361435797284
aF0.8101554102945544
aa(lp1206
F-0.11895651791734739
aF0.7869647655606847
aF0.750240564787261
aF-0.5647943436601353
aaaF91.20000000000002
tp1207
a((lp1208
(lp1209
(lp1210
F0.04151645566403746
aF-0.05498516926198404
aF0.5554401750686947
aF-0.9377041372800561
aF-0.16747479690951497
aa(lp1211
F-0.26558464422992656
aF-0.10735042793631995
aF0.002570997113094109
aF-0.05836146229859784
aF0.9546946549371416
aa(lp1212
F-0.25757535170755513
aF-0.20891212133619858
aF0.22668932944844183
aF-0.10274102118877337
aF0.48023271385365457
aa(lp1213
F0.7388703943973197
aF0.7273895628863475
aF0.020190157184913807
aF0.8562579017333802
aF0.3258893574342656
aa(lp1214
F-0.8706422528082591
aF-0.14686549042323802
aF-0.692837863874162
aF-0.006193857129844615
aF-0.8951314068278704
aa(lp1215
F-0.2171093950781897
aF0.5870221675627624
aF-0.7923306545349627
aF0.050544073842561016
aF0.19263332654282653
aa(lp1216
F0.6718559047163968
aF0.7698393589135191
aF0.04271707411000142
aF0.48280927128480355
aF0.3762602297567351
aa(lp1217
F0.18218093929602094
aF0.04308261795218951
aF0.2361542401591827
aF-0.15803053933373015
aF0.7939462026501695
aaa(lp1218
(lp1219
F1.0831889771576304
aF-1.0180164685089024
aF-0.6794695855541864
aF0.2336358726512687
aa(lp1220
F0.9000727240083962
aF0.2817312032243203
aF0.00606433802852633
aF-0.3905371451637919
aa(lp1221
F0.6544734727090389
aF-0.7313336645224282
aF-0.5641770866265953
aF-0.30293632433223117
aa(lp1222
F0.3704219408722316
aF0.03782455329058794
aF-0.8386361435797284
aF0.8592792541555044
aa(lp1223
F-0.1106134947888105
aF0.7869647655606847
aF0.7591872399302029
aF-0.6504877763050507
aaaF91.15
tp1224
a((lp1225
(lp1226
(lp1227
F0.04151645566403746
aF-0.05498516926198404
aF0.6487022991161854
aF-0.929342910233601
aF-0.16747479690951497
aa(lp1228
F-0.26558464422992656
aF-0.17545511354129817
aF0.08542212106418469
aF-0.05836146229859784
aF0.9546946549371416
aa(lp1229
F-0.25757535170755513
aF-0.3392668757341749
aF0.22668932944844183
aF-0.056936571907964986
aF0.5254490406122895
aa(lp1230
F0.7388703943973197
aF0.7102910821976746
aF0.06829680248137131
aF0.9372514164572493
aF0.3258893574342656
aa(lp1231
F-0.8706422528082591
aF-0.14686549042323802
aF-0.7244338310071761
aF-0.006193857129844615
aF-0.8951314068278704
aa(lp1232
F-0.14546042713719143
aF0.6559444954783015
aF-0.7923306545349627
aF0.009868826257185612
aF0.26801014003709445
aa(lp1233
F0.714341362878397
aF0.906527309316677
aF0.04271707411000142
aF0.48280927128480355
aF0.3762602297567351
aa(lp1234
F0.18218093929602094
aF0.04308261795218951
aF0.2361542401591827
aF-0.15803053933373015
aF0.7939462026501695
aaa(lp1235
(lp1236
F1.0831889771576304
aF-1.0180164685089024
aF-0.6794695855541864
aF0.2336358726512687
aa(lp1237
F0.8221177459117912
aF0.21204532996471853
aF0.00606433802852633
aF-0.3905371451637919
aa(lp1238
F0.7425280883836409
aF-0.6644054779909773
aF-0.5641770866265953
aF-0.38622434368055414
aa(lp1239
F0.42518000748369095
aF0.03782455329058794
aF-0.9267140978461683
aF0.8592792541555044
aa(lp1240
F-0.1106134947888105
aF0.7869647655606847
aF0.7591872399302029
aF-0.6504877763050507
aaaF91.15
tp1241
a((lp1242
(lp1243
(lp1244
F0.08805184788393611
aF-0.05498516926198404
aF0.5002650990601996
aF-0.9935189933357361
aF-0.1427057371696769
aa(lp1245
F-0.4468359672646968
aF-0.10735042793631995
aF0.002570997113094109
aF-0.05836146229859784
aF0.9054239234963436
aa(lp1246
F-0.32166983029127627
aF-0.34556907297260825
aF0.19209065641311435
aF-0.13239541864537852
aF0.5387675063385138
aa(lp1247
F0.7388703943973197
aF0.7102910821976746
aF0.06829680248137131
aF0.8775210698703403
aF0.3095996507468801
aa(lp1248
F-0.8404815207593908
aF-0.14686549042323802
aF-0.692837863874162
aF0.0255860565681757
aF-0.8951314068278704
aa(lp1249
F-0.16756197845109844
aF0.5870221675627624
aF-0.7840662773408061
aF0.12276232388307597
aF0.22440989553858595
aa(lp1250
F0.8117471199413164
aF0.8845207363525864
aF-0.03480359268723625
aF0.48280927128480355
aF0.3762602297567351
aa(lp1251
F0.2794324969721406
aF0.0003905536737942722
aF0.1382990267730207
aF-0.15055053483846362
aF0.8654693324088647
aaa(lp1252
(lp1253
F1.1540087091606024
aF-1.0180164685089024
aF-0.697765891927748
aF0.3111476258018386
aa(lp1254
F0.7985750174232062
aF0.13522503754994192
aF-0.034268637702462204
aF-0.31634549900334197
aa(lp1255
F0.5628354199044355
aF-0.7313336645224282
aF-0.6437791849206966
aF-0.318477773265058
aa(lp1256
F0.4658778850419343
aF0.03782455329058794
aF-0.8386361435797284
aF0.8101554102945544
aa(lp1257
F-0.11895651791734739
aF0.7869647655606847
aF0.7845263403357431
aF-0.5647943436601353
aaaF91.15
tp1258
a((lp1259
(lp1260
(lp1261
F0.058967391313517914
aF0.011289802447800638
aF0.5253275694855789
aF-0.929342910233601
aF-0.2526549655513918
aa(lp1262
F-0.26558464422992656
aF-0.10735042793631995
aF-0.023401346979912967
aF-0.09340121503557734
aF0.8566447715358378
aa(lp1263
F-0.23724803453244647
aF-0.34556907297260825
aF0.45905876366922793
aF-0.12118912322009258
aF0.599486428898372
aa(lp1264
F0.665750526159883
aF0.7102910821976746
aF-0.006844482740945693
aF0.8921316482136518
aF0.3309183666281338
aa(lp1265
F-0.8706422528082591
aF-0.21523655157728966
aF-0.6268579317325493
aF0.0013958689577334704
aF-0.8951314068278704
aa(lp1266
F-0.2354530430627676
aF0.6216898589733283
aF-0.9137846560276596
aF-0.05948650230212534
aF0.17590261410380376
aa(lp1267
F0.8937497511809617
aF0.9860244884003885
aF-0.019739595100579405
aF0.38425867372674305
aF0.41423215929295076
aa(lp1268
F0.2299864071536119
aF0.06381875875315243
aF0.2361542401591827
aF-0.18965509322985463
aF0.7939462026501695
aaa(lp1269
(lp1270
F1.0831889771576304
aF-1.0180164685089024
aF-0.6794695855541864
aF0.2336358726512687
aa(lp1271
F0.8025535747471941
aF0.15574334684013783
aF-0.034268637702462204
aF-0.3286967903380199
aa(lp1272
F0.7455901086213411
aF-0.7692557841504156
aF-0.6228933495757891
aF-0.318477773265058
aa(lp1273
F0.42518000748369095
aF0.11769058642452056
aF-0.8386361435797284
aF0.8101554102945544
aa(lp1274
F-0.1106134947888105
aF0.6903433080811276
aF0.7591872399302029
aF-0.692322872169675
aaaF91.15
tp1275
a((lp1276
(lp1277
(lp1278
F0.058967391313517914
aF-0.05498516926198404
aF0.4346041624809325
aF-0.929342910233601
aF-0.34192117494722374
aa(lp1279
F-0.26558464422992656
aF-0.1875144551524997
aF0.06958194886876694
aF-0.17978825359974537
aF0.9349371775309134
aa(lp1280
F-0.2675850378031022
aF-0.34556907297260825
aF0.45905876366922793
aF-0.12118912322009258
aF0.599486428898372
aa(lp1281
F0.649883928978159
aF0.7102910821976746
aF-0.006844482740945693
aF0.8775210698703403
aF0.2688172202119428
aa(lp1282
F-0.8706422528082591
aF-0.14686549042323802
aF-0.6268579317325493
aF0.0013958689577334704
aF-0.8951314068278704
aa(lp1283
F-0.2354530430627676
aF0.6216898589733283
aF-0.9137846560276596
aF-0.026180344167244206
aF0.17590261410380376
aa(lp1284
F0.8937497511809617
aF0.9661783797367681
aF-0.019739595100579405
aF0.5001786515240939
aF0.41423215929295076
aa(lp1285
F0.3231997177136239
aF0.06381875875315243
aF0.2361542401591827
aF-0.25579470611816063
aF0.7939462026501695
aaa(lp1286
(lp1287
F1.0831889771576304
aF-1.0180164685089024
aF-0.6794695855541864
aF0.1757580436888681
aa(lp1288
F0.8025535747471941
aF0.15574334684013783
aF-0.034268637702462204
aF-0.3286967903380199
aa(lp1289
F0.7455901086213411
aF-0.7692557841504156
aF-0.6228933495757891
aF-0.318477773265058
aa(lp1290
F0.42518000748369095
aF0.1368857731021868
aF-0.8386361435797284
aF0.8101554102945544
aa(lp1291
F-0.1106134947888105
aF0.6903433080811276
aF0.7094134959487995
aF-0.6109563598584943
aaaF91.15
tp1292
a((lp1293
(lp1294
(lp1295
F0.04151645566403746
aF-0.05498516926198404
aF0.5065081715204748
aF-0.929342910233601
aF-0.16747479690951497
aa(lp1296
F-0.26558464422992656
aF-0.10735042793631995
aF-0.01474713129020281
aF-0.06462708146553517
aF0.8566447715358378
aa(lp1297
F-0.2675850378031022
aF-0.34556907297260825
aF0.38808404143617825
aF-0.0021102179943281035
aF0.530612500729248
aa(lp1298
F0.7388703943973197
aF0.7102910821976746
aF0.06829680248137131
aF0.8775210698703403
aF0.2627395146951576
aa(lp1299
F-0.8706422528082591
aF-0.14686549042323802
aF-0.7397381465630485
aF0.023817177063577933
aF-0.8951314068278704
aa(lp1300
F-0.2171093950781897
aF0.57467728793556
aF-0.8705430092407515
aF0.025357625961980632
aF0.15639380198314165
aa(lp1301
F0.8117471199413164
aF0.906527309316677
aF-0.10199780689634814
aF0.4628016504975967
aF0.28224651506912546
aa(lp1302
F0.1441309941250814
aF0.013478461263756791
aF0.2361542401591827
aF-0.20297450750720725
aF0.7939462026501695
aaa(lp1303
(lp1304
F1.0831889771576304
aF-1.0180164685089024
aF-0.6794695855541864
aF0.16718050149472213
aa(lp1305
F0.7985750174232062
aF0.13522503754994192
aF-0.03800873805185987
aF-0.31634549900334197
aa(lp1306
F0.7455901086213411
aF-0.7398653082289854
aF-0.5070734297704403
aF-0.318477773265058
aa(lp1307
F0.42518000748369095
aF-0.023254349665290407
aF-0.8386361435797284
aF0.8101554102945544
aa(lp1308
F-0.1106134947888105
aF0.8028482694358071
aF0.7591872399302029
aF-0.6504877763050507
aaaF91.15
tp1309
a((lp1310
(lp1311
(lp1312
F0.018305670623992132
aF-0.001668821632506333
aF0.5065491833808293
aF-0.9161025130076589
aF-0.16747479690951497
aa(lp1313
F-0.3697836302277351
aF0.015085641038582724
aF0.022721852287614953
aF-0.17167662174800402
aF0.8566447715358378
aa(lp1314
F-0.2675850378031022
aF-0.397281455103394
aF0.4072271081824371
aF0.15496513359528155
aF0.44228601242882193
aa(lp1315
F0.6515220258974059
aF0.715605831880394
aF-0.006844482740945693
aF0.8775210698703403
aF0.3309183666281338
aa(lp1316
F-0.9364651938053954
aF-0.08581170014793917
aF-0.5594669933117531
aF-0.060558871399766304
aF-0.8679352291765196
aa(lp1317
F-0.2171093950781897
aF0.48704988974462554
aF-0.8705430092407515
aF0.03478586846933214
aF0.23436887371930748
aa(lp1318
F0.8148443081709497
aF0.8795340332877917
aF0.12654399170652153
aF0.5347512131370931
aF0.4385607453844931
aa(lp1319
F0.09572456422306978
aF0.0016703379581204797
aF0.31396522966585927
aF-0.21634216269053513
aF0.7743922223459243
aaa(lp1320
(lp1321
F1.0028738564161332
aF-1.1229786581151764
aF-0.8483559812281681
aF0.3314426039987567
aa(lp1322
F0.8025535747471941
aF0.15574334684013783
aF-0.034268637702462204
aF-0.31634549900334197
aa(lp1323
F0.6729669489435856
aF-0.6825518471119696
aF-0.5641770866265953
aF-0.22368255879158122
aa(lp1324
F0.42518000748369095
aF0.03782455329058794
aF-0.8386361435797284
aF0.878835320573144
aa(lp1325
F-0.156992683154253
aF0.7720492202394783
aF0.7591872399302029
aF-0.5772419474724629
aaaF91.15
tp1326
a((lp1327
(lp1328
(lp1329
F0.04151645566403746
aF-0.05498516926198404
aF0.5925807561810559
aF-0.929342910233601
aF-0.16747479690951497
aa(lp1330
F-0.26558464422992656
aF-0.17540759364293737
aF0.002570997113094109
aF-0.05836146229859784
aF0.9546946549371416
aa(lp1331
F-0.25757535170755513
aF-0.31379780613891906
aF0.22668932944844183
aF-0.10274102118877337
aF0.48023271385365457
aa(lp1332
F0.7388703943973197
aF0.7102910821976746
aF0.06829680248137131
aF0.8562579017333802
aF0.3258893574342656
aa(lp1333
F-0.8706422528082591
aF-0.14686549042323802
aF-0.692837863874162
aF-0.006193857129844615
aF-0.8951314068278704
aa(lp1334
F-0.13697189871431467
aF0.5870221675627624
aF-0.716137542771087
aF0.08743638150528053
aF0.19263332654282653
aa(lp1335
F0.6718559047163968
aF0.8418927565740466
aF0.04271707411000142
aF0.48280927128480355
aF0.3762602297567351
aa(lp1336
F0.18218093929602094
aF0.04308261795218951
aF0.2361542401591827
aF-0.15803053933373015
aF0.7939462026501695
aaa(lp1337
(lp1338
F1.0831889771576304
aF-1.0180164685089024
aF-0.7764365843343586
aF0.2336358726512687
aa(lp1339
F0.8221177459117912
aF0.21204532996471853
aF0.00606433802852633
aF-0.3905371451637919
aa(lp1340
F0.6544734727090389
aF-0.7313336645224282
aF-0.5641770866265953
aF-0.30293632433223117
aa(lp1341
F0.3704219408722316
aF0.03782455329058794
aF-0.8386361435797284
aF0.8592792541555044
aa(lp1342
F-0.1106134947888105
aF0.7869647655606847
aF0.7591872399302029
aF-0.6372016074413979
aaaF91.15
tp1343
a((lp1344
(lp1345
(lp1346
F0.057124230474114995
aF-0.05498516926198404
aF0.5690315162187412
aF-0.929342910233601
aF-0.16747479690951497
aa(lp1347
F-0.26558464422992656
aF-0.10735042793631995
aF-0.0725236110435536
aF-0.07510106859875759
aF0.8566447715358378
aa(lp1348
F-0.30847909798687284
aF-0.3935884485348299
aF0.38808404143617825
aF-0.010092160055524657
aF0.5387675063385138
aa(lp1349
F0.7388703943973197
aF0.7102910821976746
aF0.06829680248137131
aF0.8775210698703403
aF0.2627395146951576
aa(lp1350
F-0.8706422528082591
aF-0.09712621135271854
aF-0.692837863874162
aF0.023817177063577933
aF-0.8670631764585359
aa(lp1351
F-0.2171093950781897
aF0.5870221675627624
aF-0.8705430092407515
aF0.025357625961980632
aF0.282558355409642
aa(lp1352
F0.8117471199413164
aF0.906527309316677
aF-0.09450904704424894
aF0.48280927128480355
aF0.3762602297567351
aa(lp1353
F0.1441309941250814
aF-0.033978577423238836
aF0.2361542401591827
aF-0.2000627411737006
aF0.859727863563246
aaa(lp1354
(lp1355
F1.0831889771576304
aF-1.0180164685089024
aF-0.6794695855541864
aF0.2336358726512687
aa(lp1356
F0.7985750174232062
aF0.13522503754994192
aF-0.034268637702462204
aF-0.4120341504859345
aa(lp1357
F0.7455901086213411
aF-0.7313336645224282
aF-0.6381866942561212
aF-0.318477773265058
aa(lp1358
F0.42518000748369095
aF0.03782455329058794
aF-0.8386361435797284
aF0.8101554102945544
aa(lp1359
F-0.1106134947888105
aF0.8496659385285175
aF0.8153052581656556
aF-0.6504877763050507
aaaF91.15
tp1360
a((lp1361
(lp1362
(lp1363
F0.04151645566403746
aF-0.05498516926198404
aF0.5554401750686947
aF-0.929342910233601
aF-0.16747479690951497
aa(lp1364
F-0.26558464422992656
aF-0.10735042793631995
aF0.002570997113094109
aF-0.05836146229859784
aF0.9546946549371416
aa(lp1365
F-0.25757535170755513
aF-0.263443864578521
aF0.22668932944844183
aF-0.056936571907964986
aF0.48023271385365457
aa(lp1366
F0.7388703943973197
aF0.7102910821976746
aF0.06829680248137131
aF0.8965817580860882
aF0.3258893574342656
aa(lp1367
F-0.8706422528082591
aF-0.14686549042323802
aF-0.7918311045568993
aF-0.006193857129844615
aF-0.8951314068278704
aa(lp1368
F-0.14546042713719143
aF0.6559444954783015
aF-0.7923306545349627
aF-0.010804570120320238
aF0.26801014003709445
aa(lp1369
F0.714341362878397
aF0.906527309316677
aF0.04271707411000142
aF0.48280927128480355
aF0.3762602297567351
aa(lp1370
F0.18218093929602094
aF0.04308261795218951
aF0.2361542401591827
aF-0.2101574206329417
aF0.7939462026501695
aaa(lp1371
(lp1372
F1.0831889771576304
aF-1.0180164685089024
aF-0.6988714822901311
aF0.2336358726512687
aa(lp1373
F0.8221177459117912
aF0.21204532996471853
aF0.00606433802852633
aF-0.3905371451637919
aa(lp1374
F0.7425280883836409
aF-0.6644054779909773
aF-0.5641770866265953
aF-0.44655463755275526
aa(lp1375
F0.42518000748369095
aF0.03782455329058794
aF-0.9267140978461683
aF0.8592792541555044
aa(lp1376
F-0.1106134947888105
aF0.8422444652865427
aF0.7591872399302029
aF-0.6504877763050507
aaaF91.15
tp1377
a((lp1378
(lp1379
(lp1380
F0.04151645566403746
aF-0.05498516926198404
aF0.5690315162187412
aF-0.929342910233601
aF-0.16747479690951497
aa(lp1381
F-0.26558464422992656
aF-0.10735042793631995
aF0.002570997113094109
aF-0.05836146229859784
aF0.7995527806919179
aa(lp1382
F-0.2675850378031022
aF-0.34556907297260825
aF0.38808404143617825
aF-0.13239541864537852
aF0.5387675063385138
aa(lp1383
F0.7388703943973197
aF0.7102910821976746
aF0.059614603545534245
aF0.8775210698703403
aF0.2627395146951576
aa(lp1384
F-0.8706422528082591
aF-0.14686549042323802
aF-0.7155922521473532
aF-0.03099733737190762
aF-0.8951314068278704
aa(lp1385
F-0.2171093950781897
aF0.5870221675627624
aF-0.8705430092407515
aF0.06126761670633982
aF0.19263332654282653
aa(lp1386
F0.8117471199413164
aF0.906527309316677
aF-0.019739595100579405
aF0.48280927128480355
aF0.3762602297567351
aa(lp1387
F0.24373280613248222
aF-0.028573757801913194
aF0.2361542401591827
aF-0.15055053483846362
aF0.7939462026501695
aaa(lp1388
(lp1389
F1.0831889771576304
aF-1.0180164685089024
aF-0.6794695855541864
aF0.3111476258018386
aa(lp1390
F0.7985750174232062
aF0.13522503754994192
aF-0.10023035262679825
aF-0.31634549900334197
aa(lp1391
F0.7455901086213411
aF-0.7672131975865064
aF-0.5641770866265953
aF-0.318477773265058
aa(lp1392
F0.42518000748369095
aF0.03782455329058794
aF-0.8386361435797284
aF0.8101554102945544
aa(lp1393
F-0.11895651791734739
aF0.7869647655606847
aF0.7591872399302029
aF-0.6284171222814285
aaaF91.15
tp1394
a((lp1395
(lp1396
(lp1397
F0.04431269526442694
aF-0.05498516926198404
aF0.5253275694855789
aF-0.929342910233601
aF-0.1640247347327496
aa(lp1398
F-0.34103195598821223
aF-0.10735042793631995
aF-0.04306778508430556
aF-0.09340121503557734
aF0.7963926994907327
aa(lp1399
F-0.1844273789963151
aF-0.34556907297260825
aF0.5072150165938059
aF-0.12118912322009258
aF0.599486428898372
aa(lp1400
F0.6732845308522831
aF0.6802845987198365
aF0.08576557599563568
aF0.9227623351876585
aF0.3309183666281338
aa(lp1401
F-0.8706422528082591
aF-0.14686549042323802
aF-0.6268579317325493
aF0.0013958689577334704
aF-0.8951314068278704
aa(lp1402
F-0.2823582089977043
aF0.6216898589733283
aF-0.9137846560276596
aF-0.09297158611904419
aF0.17590261410380376
aa(lp1403
F0.8226473333333175
aF0.8764558647080001
aF0.09342850247552306
aF0.48280927128480355
aF0.41423215929295076
aa(lp1404
F0.2299864071536119
aF0.046175805647930085
aF0.2361542401591827
aF-0.31367949389935773
aF0.7939462026501695
aaa(lp1405
(lp1406
F1.0156435787968385
aF-1.0180164685089024
aF-0.6794695855541864
aF0.2336358726512687
aa(lp1407
F0.8394144562984034
aF0.15574334684013783
aF-0.034268637702462204
aF-0.23405307685277266
aa(lp1408
F0.7455901086213411
aF-0.6897392004254371
aF-0.6228933495757891
aF-0.3458926710080749
aa(lp1409
F0.4542782594377308
aF0.023387240063152872
aF-0.9180975331647729
aF0.8101554102945544
aa(lp1410
F-0.1106134947888105
aF0.6903433080811276
aF0.7591872399302029
aF-0.692322872169675
aaaF91.15
tp1411
a((lp1412
(lp1413
(lp1414
F-0.03657051768736466
aF0.01690684926502343
aF0.6136207468945568
aF-0.929342910233601
aF-0.1640247347327496
aa(lp1415
F-0.35039793477760206
aF-0.10735042793631995
aF-0.04306778508430556
aF-0.09340121503557734
aF0.7665339346513833
aa(lp1416
F-0.16302740836916174
aF-0.34556907297260825
aF0.5072150165938059
aF-0.12118912322009258
aF0.599486428898372
aa(lp1417
F0.6732845308522831
aF0.6748160980776557
aF0.08576557599563568
aF0.8775210698703403
aF0.3309183666281338
aa(lp1418
F-0.8706422528082591
aF-0.20330563790025216
aF-0.6268579317325493
aF0.0013958689577334704
aF-0.8951314068278704
aa(lp1419
F-0.2823582089977043
aF0.6216898589733283
aF-0.9137846560276596
aF-0.09297158611904419
aF0.17590261410380376
aa(lp1420
F0.8937497511809617
aF0.8764558647080001
aF0.09342850247552306
aF0.48280927128480355
aF0.41423215929295076
aa(lp1421
F0.2299864071536119
aF0.046175805647930085
aF0.2361542401591827
aF-0.31367949389935773
aF0.7939462026501695
aaa(lp1422
(lp1423
F1.0156435787968385
aF-1.0329724108913845
aF-0.6950615378211112
aF0.2336358726512687
aa(lp1424
F0.8025535747471941
aF0.15574334684013783
aF-0.12623466471496175
aF-0.3286967903380199
aa(lp1425
F0.7455901086213411
aF-0.6415650737629204
aF-0.6228933495757891
aF-0.3458926710080749
aa(lp1426
F0.4542782594377308
aF0.03782455329058794
aF-0.9180975331647729
aF0.7447538012428174
aa(lp1427
F-0.03271738555191317
aF0.6903433080811276
aF0.7591872399302029
aF-0.692322872169675
aaaF91.15
tp1428
a((lp1429
(lp1430
(lp1431
F0.04151645566403746
aF-0.05498516926198404
aF0.5554401750686947
aF-0.929342910233601
aF-0.16747479690951497
aa(lp1432
F-0.26558464422992656
aF-0.10735042793631995
aF0.002570997113094109
aF-0.05836146229859784
aF0.9546946549371416
aa(lp1433
F-0.25757535170755513
aF-0.3273435841872198
aF0.22668932944844183
aF-0.056936571907964986
aF0.48023271385365457
aa(lp1434
F0.7388703943973197
aF0.6548082115478965
aF0.026048872988304023
aF0.8965817580860882
aF0.3258893574342656
aa(lp1435
F-0.8706422528082591
aF-0.14686549042323802
aF-0.692837863874162
aF-0.006193857129844615
aF-0.8951314068278704
aa(lp1436
F-0.14546042713719143
aF0.6956457806641501
aF-0.7923306545349627
aF0.009868826257185612
aF0.26801014003709445
aa(lp1437
F0.714341362878397
aF0.906527309316677
aF0.04271707411000142
aF0.48280927128480355
aF0.32500063023304626
aa(lp1438
F0.18218093929602094
aF0.04308261795218951
aF0.2361542401591827
aF-0.15803053933373015
aF0.7554636596866859
aaa(lp1439
(lp1440
F1.0831889771576304
aF-1.0180164685089024
aF-0.6794695855541864
aF0.2336358726512687
aa(lp1441
F0.8221177459117912
aF0.21204532996471853
aF0.00606433802852633
aF-0.3905371451637919
aa(lp1442
F0.7425280883836409
aF-0.6644054779909773
aF-0.5641770866265953
aF-0.38622434368055414
aa(lp1443
F0.42518000748369095
aF0.03782455329058794
aF-0.9267140978461683
aF0.8592792541555044
aa(lp1444
F-0.1106134947888105
aF0.7869647655606847
aF0.7978885274378273
aF-0.6504877763050507
aaaF91.15
tp1445
a((lp1446
(lp1447
(lp1448
F0.04151645566403746
aF-0.05498516926198404
aF0.5065081715204748
aF-1.0164175272131841
aF-0.16747479690951497
aa(lp1449
F-0.26558464422992656
aF-0.10735042793631995
aF0.002570997113094109
aF-0.05836146229859784
aF0.8566447715358378
aa(lp1450
F-0.2675850378031022
aF-0.34556907297260825
aF0.38808404143617825
aF-0.0021102179943281035
aF0.530489318703168
aa(lp1451
F0.7388703943973197
aF0.7285313843661335
aF0.0789431541858457
aF0.8775210698703403
aF0.2627395146951576
aa(lp1452
F-0.8706422528082591
aF-0.07418685717765598
aF-0.7397381465630485
aF0.023817177063577933
aF-0.8951314068278704
aa(lp1453
F-0.2171093950781897
aF0.57467728793556
aF-0.8705430092407515
aF0.025357625961980632
aF0.10312860356886522
aa(lp1454
F0.8117471199413164
aF0.906527309316677
aF0.016429090060697378
aF0.4628016504975967
aF0.28224651506912546
aa(lp1455
F0.07620505305174832
aF0.013478461263756791
aF0.2361542401591827
aF-0.20297450750720725
aF0.7939462026501695
aaa(lp1456
(lp1457
F1.0831889771576304
aF-1.0180164685089024
aF-0.6794695855541864
aF0.2336358726512687
aa(lp1458
F0.7985750174232062
aF0.13522503754994192
aF-0.034268637702462204
aF-0.31634549900334197
aa(lp1459
F0.7455901086213411
aF-0.7398653082289854
aF-0.5070734297704403
aF-0.2252406394370382
aa(lp1460
F0.4792660465362703
aF0.03782455329058794
aF-0.8386361435797284
aF0.8101554102945544
aa(lp1461
F-0.1106134947888105
aF0.8028482694358071
aF0.7591872399302029
aF-0.6504877763050507
aaaF91.15
tp1462
a((lp1463
(lp1464
(lp1465
F0.04151645566403746
aF0.007469908796972038
aF0.4961670298719919
aF-0.9267414694926897
aF-0.16747479690951497
aa(lp1466
F-0.3551803120731912
aF0.015085641038582724
aF0.05980870934282431
aF-0.07004405685445833
aF0.8062314832231362
aa(lp1467
F-0.18279514327160962
aF-0.397281455103394
aF0.38808404143617825
aF0.15496513359528155
aF0.35324349137612576
aa(lp1468
F0.6515220258974059
aF0.6744701345622166
aF-0.006844482740945693
aF0.8775210698703403
aF0.3309183666281338
aa(lp1469
F-0.9334142956875177
aF-0.08581170014793917
aF-0.6268579317325493
aF0.0013958689577334704
aF-0.7976096932785386
aa(lp1470
F-0.2171093950781897
aF0.5315159479461679
aF-0.8705430092407515
aF-0.012006073845828684
aF0.19263332654282653
aa(lp1471
F0.8477860476898763
aF0.9661783797367681
aF0.0049859393615870745
aF0.4854120108143508
aF0.33534166767304335
aa(lp1472
F0.1441309941250814
aF0.06458948873351233
aF0.2361542401591827
aF-0.21634216269053513
aF0.7939462026501695
aaa(lp1473
(lp1474
F1.0028738564161332
aF-1.054745879835037
aF-0.8483559812281681
aF0.2336358726512687
aa(lp1475
F0.8025535747471941
aF0.15574334684013783
aF-0.034268637702462204
aF-0.31634549900334197
aa(lp1476
F0.6729669489435856
aF-0.7692557841504156
aF-0.5641770866265953
aF-0.22368255879158122
aa(lp1477
F0.42518000748369095
aF0.03782455329058794
aF-0.8386361435797284
aF0.878835320573144
aa(lp1478
F-0.1106134947888105
aF0.7720492202394783
aF0.7591872399302029
aF-0.6418822672610943
aaaF91.10000000000001
tp1479
a((lp1480
(lp1481
(lp1482
F0.04151645566403746
aF-0.05498516926198404
aF0.5554401750686947
aF-0.929342910233601
aF-0.16747479690951497
aa(lp1483
F-0.26558464422992656
aF-0.10735042793631995
aF0.002570997113094109
aF-0.05836146229859784
aF0.9546946549371416
aa(lp1484
F-0.25757535170755513
aF-0.263443864578521
aF0.22668932944844183
aF-0.10274102118877337
aF0.48023271385365457
aa(lp1485
F0.7388703943973197
aF0.7051517800972177
aF0.06829680248137131
aF0.8562579017333802
aF0.3258893574342656
aa(lp1486
F-0.9542298728065894
aF-0.14686549042323802
aF-0.692837863874162
aF-0.006193857129844615
aF-0.8951314068278704
aa(lp1487
F-0.2171093950781897
aF0.5299605057891466
aF-0.7923306545349627
aF0.14823444269495537
aF0.19263332654282653
aa(lp1488
F0.6718559047163968
aF0.8418927565740466
aF0.04271707411000142
aF0.48280927128480355
aF0.3762602297567351
aa(lp1489
F0.18218093929602094
aF0.04308261795218951
aF0.2361542401591827
aF-0.15803053933373015
aF0.7939462026501695
aaa(lp1490
(lp1491
F1.0831889771576304
aF-1.0180164685089024
aF-0.6794695855541864
aF0.2336358726512687
aa(lp1492
F0.8221177459117912
aF0.21204532996471853
aF0.00606433802852633
aF-0.3905371451637919
aa(lp1493
F0.6544734727090389
aF-0.7313336645224282
aF-0.5641770866265953
aF-0.30293632433223117
aa(lp1494
F0.3704219408722316
aF0.03782455329058794
aF-0.8917505670522639
aF0.9551634500883652
aa(lp1495
F-0.1106134947888105
aF0.7869647655606847
aF0.7591872399302029
aF-0.6504877763050507
aaaF91.10000000000001
tp1496
a((lp1497
(lp1498
(lp1499
F0.04151645566403746
aF-0.05498516926198404
aF0.5690315162187412
aF-0.929342910233601
aF-0.16747479690951497
aa(lp1500
F-0.26558464422992656
aF-0.10735042793631995
aF0.002570997113094109
aF-0.14246393601319424
aF0.8566447715358378
aa(lp1501
F-0.2675850378031022
aF-0.34556907297260825
aF0.38808404143617825
aF-0.030884661542852933
aF0.5387675063385138
aa(lp1502
F0.7388703943973197
aF0.7102910821976746
aF0.06829680248137131
aF0.8775210698703403
aF0.2627395146951576
aa(lp1503
F-0.8706422528082591
aF-0.14686549042323802
aF-0.692837863874162
aF0.023817177063577933
aF-0.8951314068278704
aa(lp1504
F-0.2171093950781897
aF0.5870221675627624
aF-0.8705430092407515
aF0.025357625961980632
aF0.19263332654282653
aa(lp1505
F0.8117471199413164
aF0.906527309316677
aF-0.019739595100579405
aF0.48280927128480355
aF0.3762602297567351
aa(lp1506
F0.1441309941250814
aF-0.028573757801913194
aF0.2361542401591827
aF-0.2000627411737006
aF0.7939462026501695
aaa(lp1507
(lp1508
F1.0831889771576304
aF-1.0180164685089024
aF-0.6794695855541864
aF0.2336358726512687
aa(lp1509
F0.7985750174232062
aF0.13522503754994192
aF-0.034268637702462204
aF-0.31634549900334197
aa(lp1510
F0.7455901086213411
aF-0.7313336645224282
aF-0.5548030373599907
aF-0.318477773265058
aa(lp1511
F0.42518000748369095
aF0.03782455329058794
aF-0.8386361435797284
aF0.8101554102945544
aa(lp1512
F-0.1106134947888105
aF0.7869647655606847
aF0.7591872399302029
aF-0.6504877763050507
aaaF91.10000000000001
tp1513
a((lp1514
(lp1515
(lp1516
F0.04151645566403746
aF-0.001668821632506333
aF0.5253275694855789
aF-0.9838232550884194
aF-0.16747479690951497
aa(lp1517
F-0.34372991302444994
aF0.015085641038582724
aF0.022721852287614953
aF-0.17167662174800402
aF0.9195384122618816
aa(lp1518
F-0.2675850378031022
aF-0.397281455103394
aF0.4604182714408785
aF0.15496513359528155
aF0.44228601242882193
aa(lp1519
F0.6515220258974059
aF0.715605831880394
aF0.018479070341909497
aF0.8775210698703403
aF0.3309183666281338
aa(lp1520
F-0.9364651938053954
aF-0.08581170014793917
aF-0.5594669933117531
aF-0.060558871399766304
aF-0.9312154679678499
aa(lp1521
F-0.23709286944188188
aF0.48704988974462554
aF-0.8705430092407515
aF0.03478586846933214
aF0.23436887371930748
aa(lp1522
F0.8477860476898763
aF0.8795340332877917
aF0.15073742334261003
aF0.5347512131370931
aF0.41496178500760267
aa(lp1523
F0.18055275326171663
aF0.0016703379581204797
aF0.2361542401591827
aF-0.21634216269053513
aF0.7939462026501695
aaa(lp1524
(lp1525
F0.916849059293955
aF-1.1259931676231603
aF-0.8483559812281681
aF0.2336358726512687
aa(lp1526
F0.747224518728705
aF0.1335112127049362
aF-0.034268637702462204
aF-0.31634549900334197
aa(lp1527
F0.6729669489435856
aF-0.737875265303308
aF-0.5641770866265953
aF-0.22368255879158122
aa(lp1528
F0.42518000748369095
aF0.03782455329058794
aF-0.7407611767472037
aF0.7864460425052504
aa(lp1529
F-0.10448041711747381
aF0.7720492202394783
aF0.7591872399302029
aF-0.6418822672610943
aaaF91.10000000000001
tp1530
a((lp1531
(lp1532
(lp1533
F0.04151645566403746
aF-0.13097035156895223
aF0.5065081715204748
aF-0.929342910233601
aF-0.16747479690951497
aa(lp1534
F-0.26558464422992656
aF-0.10735042793631995
aF0.002570997113094109
aF-0.05836146229859784
aF0.8566447715358378
aa(lp1535
F-0.2675850378031022
aF-0.34556907297260825
aF0.38808404143617825
aF-0.0021102179943281035
aF0.530612500729248
aa(lp1536
F0.7388703943973197
aF0.7102910821976746
aF0.06829680248137131
aF0.8775210698703403
aF0.2627395146951576
aa(lp1537
F-0.8706422528082591
aF-0.14686549042323802
aF-0.7397381465630485
aF0.023817177063577933
aF-0.8951314068278704
aa(lp1538
F-0.2171093950781897
aF0.57467728793556
aF-0.8705430092407515
aF0.025357625961980632
aF0.10312860356886522
aa(lp1539
F0.8117471199413164
aF0.906527309316677
aF-0.021907349491982336
aF0.4628016504975967
aF0.28224651506912546
aa(lp1540
F0.1441309941250814
aF0.013478461263756791
aF0.2361542401591827
aF-0.20297450750720725
aF0.7939462026501695
aaa(lp1541
(lp1542
F1.0831889771576304
aF-1.0180164685089024
aF-0.6794695855541864
aF0.2336358726512687
aa(lp1543
F0.7985750174232062
aF0.13522503754994192
aF-0.034268637702462204
aF-0.4082335536926098
aa(lp1544
F0.7455901086213411
aF-0.7398653082289854
aF-0.5070734297704403
aF-0.318477773265058
aa(lp1545
F0.42518000748369095
aF0.02647509637229417
aF-0.8386361435797284
aF0.7815075647954879
aa(lp1546
F-0.12252324849855317
aF0.8028482694358071
aF0.7591872399302029
aF-0.6504877763050507
aaaF91.10000000000001
tp1547
a((lp1548
(lp1549
(lp1550
F0.04151645566403746
aF-0.001668821632506333
aF0.5253275694855789
aF-0.9625491232833608
aF-0.16747479690951497
aa(lp1551
F-0.34729381661162306
aF0.015085641038582724
aF-0.039309035443535804
aF-0.17167662174800402
aF0.8566447715358378
aa(lp1552
F-0.2675850378031022
aF-0.397281455103394
aF0.4604182714408785
aF0.15496513359528155
aF0.44228601242882193
aa(lp1553
F0.6515220258974059
aF0.715605831880394
aF0.018479070341909497
aF0.8775210698703403
aF0.40969077035340784
aa(lp1554
F-0.9364651938053954
aF-0.08581170014793917
aF-0.5594669933117531
aF-0.060558871399766304
aF-0.9312154679678499
aa(lp1555
F-0.23709286944188188
aF0.48704988974462554
aF-0.8705430092407515
aF0.03478586846933214
aF0.23436887371930748
aa(lp1556
F0.8477860476898763
aF0.8795340332877917
aF0.2071275448957405
aF0.5347512131370931
aF0.41496178500760267
aa(lp1557
F0.18055275326171663
aF0.0016703379581204797
aF0.2361542401591827
aF-0.21634216269053513
aF0.7105064736112467
aaa(lp1558
(lp1559
F1.0028738564161332
aF-1.1259931676231603
aF-0.8483559812281681
aF0.2336358726512687
aa(lp1560
F0.8025535747471941
aF0.22451923010097896
aF-0.034268637702462204
aF-0.31634549900334197
aa(lp1561
F0.6729669489435856
aF-0.737875265303308
aF-0.5641770866265953
aF-0.22368255879158122
aa(lp1562
F0.42518000748369095
aF0.03782455329058794
aF-0.7407611767472037
aF0.878835320573144
aa(lp1563
F-0.1106134947888105
aF0.8323624461780881
aF0.7591872399302029
aF-0.6418822672610943
aaaF91.05000000000001
tp1564
a((lp1565
(lp1566
(lp1567
F0.04151645566403746
aF-0.05498516926198404
aF0.5554401750686947
aF-0.929342910233601
aF-0.16747479690951497
aa(lp1568
F-0.26558464422992656
aF-0.10735042793631995
aF0.002570997113094109
aF-0.05836146229859784
aF0.8566447715358378
aa(lp1569
F-0.2868961324089489
aF-0.2308490408981463
aF0.31107910236167274
aF-0.056936571907964986
aF0.48023271385365457
aa(lp1570
F0.7388703943973197
aF0.7102910821976746
aF0.06829680248137131
aF0.8562579017333802
aF0.3258893574342656
aa(lp1571
F-0.8706422528082591
aF-0.2149304042231897
aF-0.692837863874162
aF-0.006193857129844615
aF-0.8951314068278704
aa(lp1572
F-0.2171093950781897
aF0.5870221675627624
aF-0.7923306545349627
aF0.009868826257185612
aF0.19263332654282653
aa(lp1573
F0.714341362878397
aF0.906527309316677
aF0.04271707411000142
aF0.48280927128480355
aF0.3762602297567351
aa(lp1574
F0.18218093929602094
aF-0.028573757801913194
aF0.2361542401591827
aF-0.2000627411737006
aF0.7939462026501695
aaa(lp1575
(lp1576
F1.0831889771576304
aF-1.0180164685089024
aF-0.6794695855541864
aF0.2336358726512687
aa(lp1577
F0.8221177459117912
aF0.21204532996471853
aF0.00774602955549213
aF-0.3905371451637919
aa(lp1578
F0.7425280883836409
aF-0.7313336645224282
aF-0.5641770866265953
aF-0.318477773265058
aa(lp1579
F0.42518000748369095
aF0.03782455329058794
aF-0.8386361435797284
aF0.8592792541555044
aa(lp1580
F-0.1106134947888105
aF0.7869647655606847
aF0.7591872399302029
aF-0.6504877763050507
aaaF91.05000000000001
tp1581
a((lp1582
(lp1583
(lp1584
F0.04151645566403746
aF-0.09850170765541433
aF0.5554401750686947
aF-0.929342910233601
aF-0.16747479690951497
aa(lp1585
F-0.26558464422992656
aF-0.10735042793631995
aF0.002570997113094109
aF-0.05836146229859784
aF0.8566447715358378
aa(lp1586
F-0.21669891458361212
aF-0.263443864578521
aF0.31107910236167274
aF-0.056936571907964986
aF0.48023271385365457
aa(lp1587
F0.7956399528793582
aF0.7102910821976746
aF0.09461339791719856
aF0.8562579017333802
aF0.3258893574342656
aa(lp1588
F-0.8706422528082591
aF-0.14273500109062315
aF-0.6947583266987926
aF-0.006193857129844615
aF-0.9663657946393328
aa(lp1589
F-0.14882371205768558
aF0.5870221675627624
aF-0.7923306545349627
aF-0.04351251321103676
aF0.1666722031656806
aa(lp1590
F0.714341362878397
aF0.906527309316677
aF0.04271707411000142
aF0.48280927128480355
aF0.3762602297567351
aa(lp1591
F0.2241053293044289
aF-0.028573757801913194
aF0.2361542401591827
aF-0.2000627411737006
aF0.7109853877978018
aaa(lp1592
(lp1593
F1.1642837728398465
aF-1.0180164685089024
aF-0.6794695855541864
aF0.2336358726512687
aa(lp1594
F0.7637734264966392
aF0.125871088736897
aF-0.04286454605112209
aF-0.3905371451637919
aa(lp1595
F0.7425280883836409
aF-0.7313336645224282
aF-0.5641770866265953
aF-0.24977528340121632
aa(lp1596
F0.42518000748369095
aF0.01582723276682066
aF-0.8386361435797284
aF0.8592792541555044
aa(lp1597
F-0.20067093074987194
aF0.7869647655606847
aF0.7379919473385252
aF-0.6504877763050507
aaaF91.05000000000001
tp1598
a((lp1599
(lp1600
(lp1601
F0.04151645566403746
aF-0.05498516926198404
aF0.5554401750686947
aF-0.929342910233601
aF-0.26679582504513694
aa(lp1602
F-0.26558464422992656
aF-0.10735042793631995
aF0.002570997113094109
aF-0.05836146229859784
aF0.8566447715358378
aa(lp1603
F-0.21669891458361212
aF-0.263443864578521
aF0.33852425148893456
aF-0.056936571907964986
aF0.48023271385365457
aa(lp1604
F0.7388703943973197
aF0.7102910821976746
aF0.10638631032295554
aF0.8562579017333802
aF0.3258893574342656
aa(lp1605
F-0.8706422528082591
aF-0.14686549042323802
aF-0.692837863874162
aF-0.006193857129844615
aF-0.8951314068278704
aa(lp1606
F-0.2171093950781897
aF0.5870221675627624
aF-0.8749356606044609
aF-0.03960602692613984
aF0.19263332654282653
aa(lp1607
F0.714341362878397
aF0.906527309316677
aF0.04271707411000142
aF0.48280927128480355
aF0.37061587314664096
aa(lp1608
F0.18218093929602094
aF-0.028573757801913194
aF0.2361542401591827
aF-0.2000627411737006
aF0.7939462026501695
aaa(lp1609
(lp1610
F1.0831889771576304
aF-1.0180164685089024
aF-0.6794695855541864
aF0.290938892650084
aa(lp1611
F0.8221177459117912
aF0.21204532996471853
aF0.00606433802852633
aF-0.39945863109966095
aa(lp1612
F0.7425280883836409
aF-0.7313336645224282
aF-0.5641770866265953
aF-0.318477773265058
aa(lp1613
F0.35101072200781547
aF-0.022360615450790954
aF-0.8386361435797284
aF0.8592792541555044
aa(lp1614
F-0.1106134947888105
aF0.7869647655606847
aF0.7379919473385252
aF-0.6504877763050507
aaaF91.0
tp1615
a((lp1616
(lp1617
(lp1618
F0.04151645566403746
aF-0.05498516926198404
aF0.5690315162187412
aF-0.929342910233601
aF-0.11290974930923003
aa(lp1619
F-0.26558464422992656
aF-0.10735042793631995
aF0.006233886039797165
aF-0.05836146229859784
aF0.8566447715358378
aa(lp1620
F-0.2675850378031022
aF-0.34556907297260825
aF0.38808404143617825
aF-0.056936571907964986
aF0.5387675063385138
aa(lp1621
F0.7388703943973197
aF0.7102910821976746
aF0.06829680248137131
aF0.8775210698703403
aF0.2627395146951576
aa(lp1622
F-0.8706422528082591
aF-0.17661532720734155
aF-0.7143695347221013
aF0.023817177063577933
aF-0.8670631764585359
aa(lp1623
F-0.2171093950781897
aF0.5870221675627624
aF-0.8705430092407515
aF0.025357625961980632
aF0.282558355409642
aa(lp1624
F0.8117471199413164
aF0.906527309316677
aF-0.019739595100579405
aF0.48280927128480355
aF0.3762602297567351
aa(lp1625
F0.1441309941250814
aF-0.028573757801913194
aF0.24568551330675922
aF-0.12204464119817593
aF0.7939462026501695
aaa(lp1626
(lp1627
F1.0831889771576304
aF-1.0180164685089024
aF-0.6081385024196395
aF0.2336358726512687
aa(lp1628
F0.7985750174232062
aF0.22496787382125982
aF-0.034268637702462204
aF-0.4079126127905147
aa(lp1629
F0.7455901086213411
aF-0.7313336645224282
aF-0.5641770866265953
aF-0.318477773265058
aa(lp1630
F0.42518000748369095
aF0.03782455329058794
aF-0.8386361435797284
aF0.8875308122511752
aa(lp1631
F-0.1106134947888105
aF0.7869647655606847
aF0.7591872399302029
aF-0.6504877763050507
aaaF91.0
tp1632
a((lp1633
(lp1634
(lp1635
F0.058967391313517914
aF-0.05498516926198404
aF0.5253275694855789
aF-0.929342910233601
aF-0.2526549655513918
aa(lp1636
F-0.26558464422992656
aF-0.10735042793631995
aF-0.028289974094729248
aF-0.09340121503557734
aF0.8566447715358378
aa(lp1637
F-0.34760271887166283
aF-0.34556907297260825
aF0.45905876366922793
aF-0.12118912322009258
aF0.599486428898372
aa(lp1638
F0.6732845308522831
aF0.7102910821976746
aF-0.014726604976542481
aF0.95997365126213
aF0.3850642365685109
aa(lp1639
F-0.8706422528082591
aF-0.14686549042323802
aF-0.6268579317325493
aF0.04156475142680112
aF-0.9599635737850111
aa(lp1640
F-0.2354530430627676
aF0.5618494829333883
aF-0.9137846560276596
aF-0.05948650230212534
aF0.17590261410380376
aa(lp1641
F0.8937497511809617
aF1.0309263473872583
aF-0.019739595100579405
aF0.48280927128480355
aF0.41423215929295076
aa(lp1642
F0.2299864071536119
aF0.06381875875315243
aF0.2361542401591827
aF-0.25579470611816063
aF0.7939462026501695
aaa(lp1643
(lp1644
F1.0831889771576304
aF-1.0180164685089024
aF-0.6794695855541864
aF0.2336358726512687
aa(lp1645
F0.8025535747471941
aF0.15574334684013783
aF-0.034268637702462204
aF-0.3286967903380199
aa(lp1646
F0.7455901086213411
aF-0.7692557841504156
aF-0.6228933495757891
aF-0.318477773265058
aa(lp1647
F0.3517158412882094
aF0.03782455329058794
aF-0.8386361435797284
aF0.8101554102945544
aa(lp1648
F-0.1106134947888105
aF0.6903433080811276
aF0.7591872399302029
aF-0.692322872169675
aaaF91.0
tp1649
a((lp1650
(lp1651
(lp1652
F-0.0037829812970659807
aF-0.05498516926198404
aF0.5065081715204748
aF-0.929342910233601
aF-0.16747479690951497
aa(lp1653
F-0.26558464422992656
aF-0.10735042793631995
aF0.002570997113094109
aF-0.05836146229859784
aF0.8566447715358378
aa(lp1654
F-0.305389211573616
aF-0.34556907297260825
aF0.38808404143617825
aF-0.0021102179943281035
aF0.530612500729248
aa(lp1655
F0.7388703943973197
aF0.7040151363869623
aF0.06829680248137131
aF0.8775210698703403
aF0.2627395146951576
aa(lp1656
F-0.9000646268244102
aF-0.14686549042323802
aF-0.7397381465630485
aF0.023817177063577933
aF-0.8951314068278704
aa(lp1657
F-0.2171093950781897
aF0.57467728793556
aF-0.8705430092407515
aF0.025357625961980632
aF0.10312860356886522
aa(lp1658
F0.8117471199413164
aF0.906527309316677
aF-0.021907349491982336
aF0.4628016504975967
aF0.28224651506912546
aa(lp1659
F0.1441309941250814
aF0.013478461263756791
aF0.2361542401591827
aF-0.20297450750720725
aF0.7939462026501695
aaa(lp1660
(lp1661
F1.0831889771576304
aF-1.0180164685089024
aF-0.6794695855541864
aF0.26818210976132884
aa(lp1662
F0.7366940484152323
aF0.13522503754994192
aF0.031094404119744762
aF-0.31634549900334197
aa(lp1663
F0.7455901086213411
aF-0.7398653082289854
aF-0.5070734297704403
aF-0.318477773265058
aa(lp1664
F0.42518000748369095
aF0.03782455329058794
aF-0.8386361435797284
aF0.8101554102945544
aa(lp1665
F-0.1106134947888105
aF0.8028482694358071
aF0.7591872399302029
aF-0.6504877763050507
aaaF90.95
tp1666
a((lp1667
(lp1668
(lp1669
F0.04151645566403746
aF-0.05498516926198404
aF0.5554401750686947
aF-0.929342910233601
aF-0.16747479690951497
aa(lp1670
F-0.26558464422992656
aF-0.10735042793631995
aF0.002570997113094109
aF-0.05836146229859784
aF0.9546946549371416
aa(lp1671
F-0.25757535170755513
aF-0.263443864578521
aF0.22668932944844183
aF-0.10274102118877337
aF0.48023271385365457
aa(lp1672
F0.7388703943973197
aF0.7102910821976746
aF0.06829680248137131
aF0.8562579017333802
aF0.3258893574342656
aa(lp1673
F-0.8706422528082591
aF-0.14686549042323802
aF-0.692837863874162
aF-0.006193857129844615
aF-0.8951314068278704
aa(lp1674
F-0.2171093950781897
aF0.5870221675627624
aF-0.7508649693132904
aF0.08743638150528053
aF0.19263332654282653
aa(lp1675
F0.6718559047163968
aF0.8418927565740466
aF-0.015221169994886291
aF0.48280927128480355
aF0.3762602297567351
aa(lp1676
F0.18218093929602094
aF0.04308261795218951
aF0.2361542401591827
aF-0.15803053933373015
aF0.8195325401455907
aaa(lp1677
(lp1678
F1.0831889771576304
aF-1.0180164685089024
aF-0.6794695855541864
aF0.2336358726512687
aa(lp1679
F0.8221177459117912
aF0.21204532996471853
aF0.00606433802852633
aF-0.3244374594895788
aa(lp1680
F0.6544734727090389
aF-0.7313336645224282
aF-0.5641770866265953
aF-0.39530437950121133
aa(lp1681
F0.3704219408722316
aF0.11763138014177306
aF-0.8386361435797284
aF0.8592792541555044
aa(lp1682
F-0.1106134947888105
aF0.7869647655606847
aF0.7591872399302029
aF-0.6504877763050507
aaaF90.85000000000001
tp1683
a((lp1684
(lp1685
(lp1686
F0.04151645566403746
aF-0.05498516926198404
aF0.5065081715204748
aF-0.9443757732221748
aF-0.16747479690951497
aa(lp1687
F-0.26558464422992656
aF-0.021913141629653868
aF0.002570997113094109
aF-0.05836146229859784
aF0.8566447715358378
aa(lp1688
F-0.2675850378031022
aF-0.34556907297260825
aF0.38808404143617825
aF-0.056936571907964986
aF0.5387675063385138
aa(lp1689
F0.7388703943973197
aF0.7102910821976746
aF0.06829680248137131
aF0.8775210698703403
aF0.2627395146951576
aa(lp1690
F-0.8706422528082591
aF-0.14686549042323802
aF-0.692837863874162
aF0.023817177063577933
aF-0.8951314068278704
aa(lp1691
F-0.2171093950781897
aF0.5870221675627624
aF-0.8705430092407515
aF0.025357625961980632
aF0.13733773900363613
aa(lp1692
F0.8117471199413164
aF0.906527309316677
aF-0.019739595100579405
aF0.4628016504975967
aF0.28224651506912546
aa(lp1693
F0.1441309941250814
aF-0.028573757801913194
aF0.2361542401591827
aF-0.2000627411737006
aF0.7939462026501695
aaa(lp1694
(lp1695
F1.0831889771576304
aF-1.0180164685089024
aF-0.6794695855541864
aF0.2336358726512687
aa(lp1696
F0.703713197514804
aF0.22203912513828206
aF-0.034268637702462204
aF-0.33735949189094383
aa(lp1697
F0.7455901086213411
aF-0.7570061267657141
aF-0.5492075420346092
aF-0.318477773265058
aa(lp1698
F0.42518000748369095
aF0.03782455329058794
aF-0.8386361435797284
aF0.8101554102945544
aa(lp1699
F-0.1106134947888105
aF0.7869647655606847
aF0.7591872399302029
aF-0.6504877763050507
aaaF90.5
tp1700
a.