(lp0
((lp1
(lp2
(lp3
F0.03164911039068684
aF-0.250161169220785
aF-0.00022812667722837965
aF-0.8607994397726295
aF-0.15599103774868964
aa(lp4
F-0.2633302924789834
aF-0.24097794016684035
aF-0.012349048422805953
aF-0.06750455722514766
aF0.9204453569680938
aa(lp5
F-0.21569995886910054
aF0.45795728481690134
aF0.26735931073778485
aF-0.03477890416093174
aF0.5833614741871425
aa(lp6
F0.7194710515736524
aF0.7120938396844404
aF-0.1474030601062846
aF0.8945059170256191
aF0.1407852548135612
aa(lp7
F-0.9005253882131453
aF-0.15340715325908083
aF-0.6530023658072601
aF-0.05133345643287751
aF-0.8838376507139645
aa(lp8
F-0.17622833357535073
aF0.2740052509118485
aF-0.7893851445284027
aF0.031352566910217705
aF0.13526179661575316
aa(lp9
F0.8068277777171132
aF0.6269556925006969
aF0.1677432048748015
aF0.7193619317795068
aF0.40305752549099283
aa(lp10
F0.43884196462449165
aF0.9086193303257418
aF0.34881669808229654
aF0.17954096786860396
aF0.6477393319910825
aaa(lp11
(lp12
F0.3421460843385593
aF-0.9276255160189671
aF-0.6310289287778895
aF0.24141487686529747
aa(lp13
F0.9089312272284296
aF0.034984858064395566
aF-0.11620949489726871
aF0.046513603555155957
aa(lp14
F0.7821013939240752
aF-0.7684946972762439
aF-0.586611707786187
aF-0.31971092581469995
aa(lp15
F0.5895072239286405
aF0.00965773421893551
aF-0.8709415367355486
aF0.8165641682672863
aa(lp16
F-0.05568797047323062
aF0.657912755278329
aF0.625025670444327
aF-0.3682492989504782
aaaF346.0499999999997
tp17
a(g1
F346.0499999999997
tp18
a(g1
F346.0499999999997
tp19
a(g1
F346.0499999999997
tp20
a(g1
F346.0499999999997
tp21
a(g1
F346.0499999999997
tp22
a(g1
F346.0499999999997
tp23
a(g1
F346.0499999999997
tp24
a(g1
F346.0499999999997
tp25
a(g1
F346.0499999999997
tp26
a(g1
F346.0499999999997
tp27
a(g1
F346.0499999999997
tp28
a(g1
F346.0499999999997
tp29
a(g1
F346.0499999999997
tp30
a(g1
F346.0499999999997
tp31
a(g1
F346.0499999999997
tp32
a(g1
F346.0499999999997
tp33
a(g1
F346.0499999999997
tp34
a(g1
F346.0499999999997
tp35
a(g1
F346.0499999999997
tp36
a(g1
F346.0499999999997
tp37
a(g1
F346.0499999999997
tp38
a(g1
F346.0499999999997
tp39
a(g1
F346.0499999999997
tp40
a(g1
F346.0499999999997
tp41
a(g1
F346.0499999999997
tp42
a(g1
F346.0499999999997
tp43
a(g1
F346.0499999999997
tp44
a(g1
F346.0499999999997
tp45
a(g1
F346.0499999999997
tp46
a(g1
F346.0499999999997
tp47
a(g1
F346.0499999999997
tp48
a(g1
F346.0499999999997
tp49
a(g1
F346.0499999999997
tp50
a(g1
F346.0499999999997
tp51
a(g1
F346.0499999999997
tp52
a(g1
F346.0499999999997
tp53
a(g1
F346.0499999999997
tp54
a(g1
F346.0499999999997
tp55
a(g1
F346.0499999999997
tp56
a(g1
F346.0499999999997
tp57
a(g1
F346.0499999999997
tp58
a(g1
F346.0499999999997
tp59
a(g1
F346.0499999999997
tp60
a(g1
F346.0499999999997
tp61
a(g1
F346.0499999999997
tp62
a(g1
F346.0499999999997
tp63
a(g1
F346.0499999999997
tp64
a(g1
F346.0499999999997
tp65
a(g1
F346.0499999999997
tp66
a(g1
F346.0499999999997
tp67
a(g1
F346.0499999999997
tp68
a(g1
F346.0499999999997
tp69
a(g1
F346.0499999999997
tp70
a(g1
F346.0499999999997
tp71
a(g1
F346.0499999999997
tp72
a(g1
F346.0499999999997
tp73
a(g1
F346.0499999999997
tp74
a(g1
F346.0499999999997
tp75
a(g1
F346.0499999999997
tp76
a(g1
F346.0499999999997
tp77
a(g1
F346.0499999999997
tp78
a(g1
F346.0499999999997
tp79
a(g1
F346.0499999999997
tp80
a(g1
F346.0499999999997
tp81
a(g1
F346.0499999999997
tp82
a(g1
F346.0499999999997
tp83
a(g1
F346.0499999999997
tp84
a(g1
F346.0499999999997
tp85
a(g1
F346.0499999999997
tp86
a(g1
F346.0499999999997
tp87
a(g1
F346.0499999999997
tp88
a(g1
F346.0499999999997
tp89
a(g1
F346.0499999999997
tp90
a(g1
F346.0499999999997
tp91
a(g1
F346.0499999999997
tp92
a(g1
F346.0499999999997
tp93
a(g1
F346.0499999999997
tp94
a(g1
F346.0499999999997
tp95
a(g1
F346.0499999999997
tp96
a(g1
F346.0499999999997
tp97
a(g1
F346.0499999999997
tp98
a(g1
F346.0499999999997
tp99
a(g1
F346.0499999999997
tp100
a(g1
F346.0499999999997
tp101
a(g1
F346.0499999999997
tp102
a(g1
F346.0499999999997
tp103
a(g1
F346.0499999999997
tp104
a(g1
F346.0499999999997
tp105
a(g1
F346.0499999999997
tp106
a(g1
F346.0499999999997
tp107
a(g1
F346.0499999999997
tp108
a(g1
F346.0499999999997
tp109
a(g1
F346.0499999999997
tp110
a(g1
F346.0499999999997
tp111
a(g1
F346.0499999999997
tp112
a(g1
F346.0499999999997
tp113
a(g1
F346.0499999999997
tp114
a(g1
F346.0499999999997
tp115
a(g1
F346.0499999999997
tp116
a.