(lp0
((lp1
(lp2
(lp3
F-0.18378339065334678
aF-0.5857668153989348
aF-0.22193205757581613
aF-0.18069543995119197
aF0.06738729880053013
aa(lp4
F-0.13107151423063318
aF0.40950081449830433
aF0.04770956633922668
aF-0.16554111470850508
aF-0.1469290043993161
aa(lp5
F-0.17333082966229374
aF0.17303420430955374
aF0.2814894584952643
aF0.1284654718007619
aF-0.14989164917789144
aa(lp6
F0.01740722235248482
aF-0.7779279189230415
aF-0.1437274816953507
aF-0.06201333528535499
aF-0.899756997790771
aa(lp7
F0.9560428987110978
aF0.09922551601086813
aF0.041453381566767755
aF-0.026170072870847827
aF0.08641558199810423
aa(lp8
F-0.05552581221746214
aF-0.10481358647995714
aF0.10463349630033353
aF0.47814180376297116
aF-0.1055818186759481
aa(lp9
F-0.020213983761619758
aF-0.16600265087373012
aF-0.8030606307181616
aF-0.6926377580176777
aF-0.594847939885307
aa(lp10
F0.0789686340907505
aF-0.19300548712513932
aF-0.11869761793682287
aF-0.09639415945257666
aF-0.005434067117559949
aaa(lp11
(lp12
F-0.05666147518678863
aF-0.1527259683074491
aF-0.358730763475847
aF0.5759847709138657
aa(lp13
F-0.9748808894587323
aF0.2713576721807718
aF-0.06404946055323735
aF-0.7028947924087237
aa(lp14
F-0.4266575125417895
aF-0.8734692839390013
aF-0.03565774574261904
aF0.0061263940539546535
aa(lp15
F-0.6867841890705726
aF-0.39663321314220434
aF-0.09139190100756989
aF-1.3260749461765795
aa(lp16
F0.418444823970181
aF0.854977826178809
aF-1.8929206124970883
aF0.8351295029403587
aaaF16.0637774097618
tp17
a((lp18
(lp19
(lp20
F-0.18378339065334678
aF-0.5857668153989348
aF-0.22193205757581613
aF-0.18069543995119197
aF0.06738729880053013
aa(lp21
F-0.13107151423063318
aF0.40950081449830433
aF0.04770956633922668
aF-0.16554111470850508
aF-0.1469290043993161
aa(lp22
F-0.17333082966229374
aF0.17303420430955374
aF0.2814894584952643
aF0.1284654718007619
aF-0.14989164917789144
aa(lp23
F0.01740722235248482
aF-0.7779279189230415
aF-0.1437274816953507
aF-0.06201333528535499
aF-0.8709009952927291
aa(lp24
F0.9560428987110978
aF0.09922551601086813
aF0.041453381566767755
aF-0.026170072870847827
aF0.13331228045180832
aa(lp25
F-0.05552581221746214
aF-0.10481358647995714
aF0.10463349630033353
aF0.4458173991733343
aF-0.1055818186759481
aa(lp26
F-0.020213983761619758
aF-0.16600265087373012
aF-0.8030606307181616
aF-0.6926377580176777
aF-0.594847939885307
aa(lp27
F0.0789686340907505
aF-0.19300548712513932
aF-0.11869761793682287
aF-0.09639415945257666
aF-0.005434067117559949
aaa(lp28
(lp29
F-0.027565510655903847
aF-0.1527259683074491
aF-0.4007630053243192
aF0.5759847709138657
aa(lp30
F-0.9931019631475579
aF0.2713576721807718
aF-0.06404946055323735
aF-0.7028947924087237
aa(lp31
F-0.4266575125417895
aF-0.8734692839390013
aF-0.03565774574261904
aF0.0061263940539546535
aa(lp32
F-0.6867841890705726
aF-0.39663321314220434
aF-0.09139190100756989
aF-1.3260749461765795
aa(lp33
F0.418444823970181
aF0.854977826178809
aF-1.8929206124970883
aF0.8351295029403587
aaaF16.027737515282787
tp34
a((lp35
(lp36
(lp37
F-0.18378339065334678
aF-0.5857668153989348
aF-0.22193205757581613
aF-0.18069543995119197
aF0.06738729880053013
aa(lp38
F-0.13107151423063318
aF0.40950081449830433
aF0.04770956633922668
aF-0.16554111470850508
aF-0.1469290043993161
aa(lp39
F-0.17333082966229374
aF0.17303420430955374
aF0.2814894584952643
aF0.1284654718007619
aF-0.14989164917789144
aa(lp40
F0.01740722235248482
aF-0.7779279189230415
aF-0.1437274816953507
aF-0.06201333528535499
aF-0.8709009952927291
aa(lp41
F0.9560428987110978
aF0.09922551601086813
aF0.041453381566767755
aF-0.026170072870847827
aF0.13331228045180832
aa(lp42
F-0.05552581221746214
aF-0.10481358647995714
aF0.10463349630033353
aF0.4458173991733343
aF-0.1055818186759481
aa(lp43
F-0.020213983761619758
aF-0.16600265087373012
aF-0.8030606307181616
aF-0.6926377580176777
aF-0.594847939885307
aa(lp44
F0.0789686340907505
aF-0.19300548712513932
aF-0.11869761793682287
aF-0.09639415945257666
aF-0.005434067117559949
aaa(lp45
(lp46
F-0.027565510655903847
aF-0.1527259683074491
aF-0.4007630053243192
aF0.5759847709138657
aa(lp47
F-0.9931019631475579
aF0.2713576721807718
aF-0.06404946055323735
aF-0.7028947924087237
aa(lp48
F-0.4266575125417895
aF-0.8734692839390013
aF-0.03565774574261904
aF0.0061263940539546535
aa(lp49
F-0.6867841890705726
aF-0.39663321314220434
aF-0.09139190100756989
aF-1.3260749461765795
aa(lp50
F0.418444823970181
aF0.854977826178809
aF-1.8929206124970883
aF0.8351295029403587
aaaF16.027737515282787
tp51
a((lp52
(lp53
(lp54
F-0.18378339065334678
aF-0.5857668153989348
aF-0.22193205757581613
aF-0.18069543995119197
aF0.06738729880053013
aa(lp55
F-0.13107151423063318
aF0.40950081449830433
aF0.04770956633922668
aF-0.16554111470850508
aF-0.1469290043993161
aa(lp56
F-0.17333082966229374
aF0.17303420430955374
aF0.2814894584952643
aF0.1284654718007619
aF-0.14989164917789144
aa(lp57
F0.01740722235248482
aF-0.7779279189230415
aF-0.1437274816953507
aF-0.06201333528535499
aF-0.8709009952927291
aa(lp58
F0.9560428987110978
aF0.09922551601086813
aF0.041453381566767755
aF-0.026170072870847827
aF0.13331228045180832
aa(lp59
F-0.05552581221746214
aF-0.10481358647995714
aF0.10463349630033353
aF0.4458173991733343
aF-0.1055818186759481
aa(lp60
F-0.020213983761619758
aF-0.16600265087373012
aF-0.8030606307181616
aF-0.6926377580176777
aF-0.594847939885307
aa(lp61
F0.0789686340907505
aF-0.19300548712513932
aF-0.11869761793682287
aF-0.09639415945257666
aF-0.005434067117559949
aaa(lp62
(lp63
F-0.027565510655903847
aF-0.1527259683074491
aF-0.4007630053243192
aF0.5759847709138657
aa(lp64
F-0.9931019631475579
aF0.2713576721807718
aF-0.06404946055323735
aF-0.7028947924087237
aa(lp65
F-0.4266575125417895
aF-0.8734692839390013
aF-0.03565774574261904
aF0.0061263940539546535
aa(lp66
F-0.6867841890705726
aF-0.39663321314220434
aF-0.09139190100756989
aF-1.3260749461765795
aa(lp67
F0.418444823970181
aF0.854977826178809
aF-1.8929206124970883
aF0.8351295029403587
aaaF16.027737515282787
tp68
a((lp69
(lp70
(lp71
F-0.18378339065334678
aF-0.5857668153989348
aF-0.22193205757581613
aF-0.18069543995119197
aF0.06738729880053013
aa(lp72
F-0.13107151423063318
aF0.40950081449830433
aF0.04770956633922668
aF-0.16554111470850508
aF-0.1469290043993161
aa(lp73
F-0.17333082966229374
aF0.17303420430955374
aF0.2814894584952643
aF0.1284654718007619
aF-0.14989164917789144
aa(lp74
F0.01740722235248482
aF-0.7779279189230415
aF-0.1437274816953507
aF-0.06201333528535499
aF-0.8709009952927291
aa(lp75
F0.9560428987110978
aF0.09922551601086813
aF0.041453381566767755
aF-0.026170072870847827
aF0.13331228045180832
aa(lp76
F-0.05552581221746214
aF-0.10481358647995714
aF0.10463349630033353
aF0.4458173991733343
aF-0.1055818186759481
aa(lp77
F-0.020213983761619758
aF-0.16600265087373012
aF-0.8030606307181616
aF-0.6926377580176777
aF-0.594847939885307
aa(lp78
F0.0789686340907505
aF-0.19300548712513932
aF-0.11869761793682287
aF-0.09639415945257666
aF-0.005434067117559949
aaa(lp79
(lp80
F-0.05666147518678863
aF-0.1527259683074491
aF-0.358730763475847
aF0.5759847709138657
aa(lp81
F-0.9748808894587323
aF0.2713576721807718
aF-0.06404946055323735
aF-0.7028947924087237
aa(lp82
F-0.4266575125417895
aF-0.8734692839390013
aF-0.03565774574261904
aF0.0061263940539546535
aa(lp83
F-0.6867841890705726
aF-0.39663321314220434
aF-0.09139190100756989
aF-1.3260749461765795
aa(lp84
F0.418444823970181
aF0.854977826178809
aF-1.8929206124970883
aF0.8351295029403587
aaaF16.025255744900832
tp85
a((lp86
(lp87
(lp88
F-0.18378339065334678
aF-0.5857668153989348
aF-0.22193205757581613
aF-0.18069543995119197
aF0.06738729880053013
aa(lp89
F-0.13107151423063318
aF0.40950081449830433
aF0.04770956633922668
aF-0.16554111470850508
aF-0.1469290043993161
aa(lp90
F-0.17333082966229374
aF0.17303420430955374
aF0.2814894584952643
aF0.1284654718007619
aF-0.14989164917789144
aa(lp91
F0.01740722235248482
aF-0.7779279189230415
aF-0.1437274816953507
aF-0.06201333528535499
aF-0.8709009952927291
aa(lp92
F0.9560428987110978
aF0.09922551601086813
aF0.041453381566767755
aF-0.026170072870847827
aF0.13331228045180832
aa(lp93
F-0.05552581221746214
aF-0.10481358647995714
aF0.10463349630033353
aF0.4458173991733343
aF-0.1055818186759481
aa(lp94
F-0.020213983761619758
aF-0.16600265087373012
aF-0.8030606307181616
aF-0.6926377580176777
aF-0.594847939885307
aa(lp95
F0.0789686340907505
aF-0.19300548712513932
aF-0.11869761793682287
aF-0.09639415945257666
aF-0.005434067117559949
aaa(lp96
(lp97
F-0.05666147518678863
aF-0.1527259683074491
aF-0.358730763475847
aF0.5759847709138657
aa(lp98
F-0.9748808894587323
aF0.2713576721807718
aF-0.06404946055323735
aF-0.7028947924087237
aa(lp99
F-0.4266575125417895
aF-0.8734692839390013
aF-0.03565774574261904
aF0.0061263940539546535
aa(lp100
F-0.6867841890705726
aF-0.39663321314220434
aF-0.09139190100756989
aF-1.3260749461765795
aa(lp101
F0.418444823970181
aF0.854977826178809
aF-1.8929206124970883
aF0.8351295029403587
aaaF16.025255744900832
tp102
a((lp103
(lp104
(lp105
F-0.18378339065334678
aF-0.5857668153989348
aF-0.22193205757581613
aF-0.18069543995119197
aF0.06738729880053013
aa(lp106
F-0.13107151423063318
aF0.40950081449830433
aF0.04770956633922668
aF-0.16554111470850508
aF-0.1469290043993161
aa(lp107
F-0.17333082966229374
aF0.17303420430955374
aF0.2814894584952643
aF0.1284654718007619
aF-0.14989164917789144
aa(lp108
F0.01740722235248482
aF-0.7779279189230415
aF-0.1437274816953507
aF-0.06201333528535499
aF-0.8470894516098058
aa(lp109
F0.9560428987110978
aF0.09922551601086813
aF0.041453381566767755
aF-0.026170072870847827
aF0.13331228045180832
aa(lp110
F-0.05552581221746214
aF-0.10481358647995714
aF0.10463349630033353
aF0.4458173991733343
aF-0.1055818186759481
aa(lp111
F-0.020213983761619758
aF-0.16600265087373012
aF-0.8030606307181616
aF-0.6926377580176777
aF-0.594847939885307
aa(lp112
F0.0789686340907505
aF-0.19300548712513932
aF-0.11869761793682287
aF-0.09639415945257666
aF-0.005434067117559949
aaa(lp113
(lp114
F-0.05666147518678863
aF-0.1687624896714579
aF-0.358730763475847
aF0.5759847709138657
aa(lp115
F-0.9748808894587323
aF0.2713576721807718
aF-0.06404946055323735
aF-0.7028947924087237
aa(lp116
F-0.4266575125417895
aF-0.8734692839390013
aF-0.03565774574261904
aF0.0061263940539546535
aa(lp117
F-0.6867841890705726
aF-0.39663321314220434
aF-0.09139190100756989
aF-1.3260749461765795
aa(lp118
F0.418444823970181
aF0.854977826178809
aF-1.8929206124970883
aF0.8351295029403587
aaaF15.117827158520244
tp119
a((lp120
(lp121
(lp122
F-0.18378339065334678
aF-0.5857668153989348
aF-0.22193205757581613
aF-0.18069543995119197
aF0.06738729880053013
aa(lp123
F-0.13107151423063318
aF0.40950081449830433
aF0.04770956633922668
aF-0.16554111470850508
aF-0.1469290043993161
aa(lp124
F-0.17333082966229374
aF0.17303420430955374
aF0.2814894584952643
aF0.1284654718007619
aF-0.14989164917789144
aa(lp125
F0.01740722235248482
aF-0.7779279189230415
aF-0.1437274816953507
aF-0.06201333528535499
aF-0.8709009952927291
aa(lp126
F0.9560428987110978
aF0.09922551601086813
aF0.041453381566767755
aF-0.026170072870847827
aF0.13331228045180832
aa(lp127
F-0.05552581221746214
aF-0.10481358647995714
aF0.10463349630033353
aF0.4458173991733343
aF-0.1055818186759481
aa(lp128
F-0.020213983761619758
aF-0.16600265087373012
aF-0.8030606307181616
aF-0.6926377580176777
aF-0.594847939885307
aa(lp129
F0.0789686340907505
aF-0.19300548712513932
aF-0.11869761793682287
aF-0.09639415945257666
aF-0.005434067117559949
aaa(lp130
(lp131
F-0.05666147518678863
aF-0.1527259683074491
aF-0.358730763475847
aF0.5759847709138657
aa(lp132
F-0.9931019631475579
aF0.2713576721807718
aF-0.06404946055323735
aF-0.7028947924087237
aa(lp133
F-0.4266575125417895
aF-0.8734692839390013
aF-0.03565774574261904
aF0.0061263940539546535
aa(lp134
F-0.6867841890705726
aF-0.39663321314220434
aF-0.09139190100756989
aF-1.3260749461765795
aa(lp135
F0.418444823970181
aF0.854977826178809
aF-1.8929206124970883
aF0.8351295029403587
aaaF14.646129360151253
tp136
a((lp137
(lp138
(lp139
F-0.18378339065334678
aF-0.5857668153989348
aF-0.22193205757581613
aF-0.18069543995119197
aF0.06738729880053013
aa(lp140
F-0.13107151423063318
aF0.40950081449830433
aF0.04770956633922668
aF-0.16554111470850508
aF-0.1469290043993161
aa(lp141
F-0.17333082966229374
aF0.17303420430955374
aF0.2814894584952643
aF0.1284654718007619
aF-0.14989164917789144
aa(lp142
F0.01740722235248482
aF-0.7779279189230415
aF-0.1437274816953507
aF-0.06201333528535499
aF-0.8709009952927291
aa(lp143
F0.9560428987110978
aF0.09922551601086813
aF0.041453381566767755
aF-0.026170072870847827
aF0.13331228045180832
aa(lp144
F-0.05552581221746214
aF-0.6016529703543996
aF0.10463349630033353
aF0.4458173991733343
aF-0.1055818186759481
aa(lp145
F-0.020213983761619758
aF-0.16600265087373012
aF-0.8030606307181616
aF-0.6926377580176777
aF-0.594847939885307
aa(lp146
F0.0789686340907505
aF-0.19300548712513932
aF-0.11869761793682287
aF-0.09639415945257666
aF-0.005434067117559949
aaa(lp147
(lp148
F-0.027565510655903847
aF-0.1527259683074491
aF-0.4007630053243192
aF-0.3684564864270612
aa(lp149
F-0.9931019631475579
aF0.2713576721807718
aF-0.06404946055323735
aF-0.7028947924087237
aa(lp150
F-0.4266575125417895
aF-0.8734692839390013
aF-0.03565774574261904
aF0.0061263940539546535
aa(lp151
F-0.6867841890705726
aF-0.39663321314220434
aF-0.09139190100756989
aF-1.3260749461765795
aa(lp152
F0.418444823970181
aF0.854977826178809
aF-1.8929206124970883
aF0.8351295029403587
aaaF9.32955946851695
tp153
a((lp154
(lp155
(lp156
F-0.18378339065334678
aF-0.5857668153989348
aF-0.22193205757581613
aF-0.18069543995119197
aF-0.6023207947784046
aa(lp157
F-0.13107151423063318
aF0.762731128804178
aF-0.8739103293084132
aF-0.16554111470850508
aF0.32202582971355587
aa(lp158
F-0.17333082966229374
aF0.17303420430955374
aF0.2814894584952643
aF0.1284654718007619
aF-0.14989164917789144
aa(lp159
F0.01740722235248482
aF-0.7779279189230415
aF-0.1437274816953507
aF-0.06201333528535499
aF-0.8709009952927291
aa(lp160
F0.9560428987110978
aF0.132952179967887
aF0.041453381566767755
aF-0.026170072870847827
aF0.13331228045180832
aa(lp161
F0.5293796363028227
aF-0.8915423074774256
aF-0.7310078291803201
aF0.4458173991733343
aF-0.1055818186759481
aa(lp162
F-0.020213983761619758
aF-0.16600265087373012
aF-0.8030606307181616
aF-0.6926377580176777
aF-0.594847939885307
aa(lp163
F0.0789686340907505
aF-0.19300548712513932
aF-0.11869761793682287
aF-0.09639415945257666
aF-0.005434067117559949
aaa(lp164
(lp165
F-0.027565510655903847
aF-0.1527259683074491
aF-0.4007630053243192
aF0.5759847709138657
aa(lp166
F-0.9931019631475579
aF0.2713576721807718
aF-0.9303841921648208
aF-0.7028947924087237
aa(lp167
F-0.4266575125417895
aF-0.8734692839390013
aF-0.03565774574261904
aF0.0061263940539546535
aa(lp168
F-0.6867841890705726
aF-0.39663321314220434
aF-0.09139190100756989
aF-1.3260749461765795
aa(lp169
F-0.2997180327833362
aF0.854977826178809
aF-1.8929206124970883
aF0.8351295029403587
aaaF1.1451017668822066
tp170
a.